
starget:     file format elf64-x86-64


Disassembly of section .init:

0000000000401000 <_init>:
  401000:	f3 0f 1e fa          	endbr64 
  401004:	48 83 ec 08          	sub    $0x8,%rsp
  401008:	48 8b 05 e9 5f 00 00 	mov    0x5fe9(%rip),%rax        # 406ff8 <__gmon_start__>
  40100f:	48 85 c0             	test   %rax,%rax
  401012:	74 02                	je     401016 <_init+0x16>
  401014:	ff d0                	callq  *%rax
  401016:	48 83 c4 08          	add    $0x8,%rsp
  40101a:	c3                   	retq   

Disassembly of section .plt:

0000000000401020 <.plt>:
  401020:	ff 35 e2 5f 00 00    	pushq  0x5fe2(%rip)        # 407008 <_GLOBAL_OFFSET_TABLE_+0x8>
  401026:	f2 ff 25 e3 5f 00 00 	bnd jmpq *0x5fe3(%rip)        # 407010 <_GLOBAL_OFFSET_TABLE_+0x10>
  40102d:	0f 1f 00             	nopl   (%rax)
  401030:	f3 0f 1e fa          	endbr64 
  401034:	68 00 00 00 00       	pushq  $0x0
  401039:	f2 e9 e1 ff ff ff    	bnd jmpq 401020 <.plt>
  40103f:	90                   	nop
  401040:	f3 0f 1e fa          	endbr64 
  401044:	68 01 00 00 00       	pushq  $0x1
  401049:	f2 e9 d1 ff ff ff    	bnd jmpq 401020 <.plt>
  40104f:	90                   	nop
  401050:	f3 0f 1e fa          	endbr64 
  401054:	68 02 00 00 00       	pushq  $0x2
  401059:	f2 e9 c1 ff ff ff    	bnd jmpq 401020 <.plt>
  40105f:	90                   	nop
  401060:	f3 0f 1e fa          	endbr64 
  401064:	68 03 00 00 00       	pushq  $0x3
  401069:	f2 e9 b1 ff ff ff    	bnd jmpq 401020 <.plt>
  40106f:	90                   	nop
  401070:	f3 0f 1e fa          	endbr64 
  401074:	68 04 00 00 00       	pushq  $0x4
  401079:	f2 e9 a1 ff ff ff    	bnd jmpq 401020 <.plt>
  40107f:	90                   	nop
  401080:	f3 0f 1e fa          	endbr64 
  401084:	68 05 00 00 00       	pushq  $0x5
  401089:	f2 e9 91 ff ff ff    	bnd jmpq 401020 <.plt>
  40108f:	90                   	nop
  401090:	f3 0f 1e fa          	endbr64 
  401094:	68 06 00 00 00       	pushq  $0x6
  401099:	f2 e9 81 ff ff ff    	bnd jmpq 401020 <.plt>
  40109f:	90                   	nop
  4010a0:	f3 0f 1e fa          	endbr64 
  4010a4:	68 07 00 00 00       	pushq  $0x7
  4010a9:	f2 e9 71 ff ff ff    	bnd jmpq 401020 <.plt>
  4010af:	90                   	nop
  4010b0:	f3 0f 1e fa          	endbr64 
  4010b4:	68 08 00 00 00       	pushq  $0x8
  4010b9:	f2 e9 61 ff ff ff    	bnd jmpq 401020 <.plt>
  4010bf:	90                   	nop
  4010c0:	f3 0f 1e fa          	endbr64 
  4010c4:	68 09 00 00 00       	pushq  $0x9
  4010c9:	f2 e9 51 ff ff ff    	bnd jmpq 401020 <.plt>
  4010cf:	90                   	nop
  4010d0:	f3 0f 1e fa          	endbr64 
  4010d4:	68 0a 00 00 00       	pushq  $0xa
  4010d9:	f2 e9 41 ff ff ff    	bnd jmpq 401020 <.plt>
  4010df:	90                   	nop
  4010e0:	f3 0f 1e fa          	endbr64 
  4010e4:	68 0b 00 00 00       	pushq  $0xb
  4010e9:	f2 e9 31 ff ff ff    	bnd jmpq 401020 <.plt>
  4010ef:	90                   	nop
  4010f0:	f3 0f 1e fa          	endbr64 
  4010f4:	68 0c 00 00 00       	pushq  $0xc
  4010f9:	f2 e9 21 ff ff ff    	bnd jmpq 401020 <.plt>
  4010ff:	90                   	nop
  401100:	f3 0f 1e fa          	endbr64 
  401104:	68 0d 00 00 00       	pushq  $0xd
  401109:	f2 e9 11 ff ff ff    	bnd jmpq 401020 <.plt>
  40110f:	90                   	nop
  401110:	f3 0f 1e fa          	endbr64 
  401114:	68 0e 00 00 00       	pushq  $0xe
  401119:	f2 e9 01 ff ff ff    	bnd jmpq 401020 <.plt>
  40111f:	90                   	nop
  401120:	f3 0f 1e fa          	endbr64 
  401124:	68 0f 00 00 00       	pushq  $0xf
  401129:	f2 e9 f1 fe ff ff    	bnd jmpq 401020 <.plt>
  40112f:	90                   	nop
  401130:	f3 0f 1e fa          	endbr64 
  401134:	68 10 00 00 00       	pushq  $0x10
  401139:	f2 e9 e1 fe ff ff    	bnd jmpq 401020 <.plt>
  40113f:	90                   	nop
  401140:	f3 0f 1e fa          	endbr64 
  401144:	68 11 00 00 00       	pushq  $0x11
  401149:	f2 e9 d1 fe ff ff    	bnd jmpq 401020 <.plt>
  40114f:	90                   	nop
  401150:	f3 0f 1e fa          	endbr64 
  401154:	68 12 00 00 00       	pushq  $0x12
  401159:	f2 e9 c1 fe ff ff    	bnd jmpq 401020 <.plt>
  40115f:	90                   	nop
  401160:	f3 0f 1e fa          	endbr64 
  401164:	68 13 00 00 00       	pushq  $0x13
  401169:	f2 e9 b1 fe ff ff    	bnd jmpq 401020 <.plt>
  40116f:	90                   	nop
  401170:	f3 0f 1e fa          	endbr64 
  401174:	68 14 00 00 00       	pushq  $0x14
  401179:	f2 e9 a1 fe ff ff    	bnd jmpq 401020 <.plt>
  40117f:	90                   	nop
  401180:	f3 0f 1e fa          	endbr64 
  401184:	68 15 00 00 00       	pushq  $0x15
  401189:	f2 e9 91 fe ff ff    	bnd jmpq 401020 <.plt>
  40118f:	90                   	nop
  401190:	f3 0f 1e fa          	endbr64 
  401194:	68 16 00 00 00       	pushq  $0x16
  401199:	f2 e9 81 fe ff ff    	bnd jmpq 401020 <.plt>
  40119f:	90                   	nop
  4011a0:	f3 0f 1e fa          	endbr64 
  4011a4:	68 17 00 00 00       	pushq  $0x17
  4011a9:	f2 e9 71 fe ff ff    	bnd jmpq 401020 <.plt>
  4011af:	90                   	nop
  4011b0:	f3 0f 1e fa          	endbr64 
  4011b4:	68 18 00 00 00       	pushq  $0x18
  4011b9:	f2 e9 61 fe ff ff    	bnd jmpq 401020 <.plt>
  4011bf:	90                   	nop
  4011c0:	f3 0f 1e fa          	endbr64 
  4011c4:	68 19 00 00 00       	pushq  $0x19
  4011c9:	f2 e9 51 fe ff ff    	bnd jmpq 401020 <.plt>
  4011cf:	90                   	nop
  4011d0:	f3 0f 1e fa          	endbr64 
  4011d4:	68 1a 00 00 00       	pushq  $0x1a
  4011d9:	f2 e9 41 fe ff ff    	bnd jmpq 401020 <.plt>
  4011df:	90                   	nop
  4011e0:	f3 0f 1e fa          	endbr64 
  4011e4:	68 1b 00 00 00       	pushq  $0x1b
  4011e9:	f2 e9 31 fe ff ff    	bnd jmpq 401020 <.plt>
  4011ef:	90                   	nop
  4011f0:	f3 0f 1e fa          	endbr64 
  4011f4:	68 1c 00 00 00       	pushq  $0x1c
  4011f9:	f2 e9 21 fe ff ff    	bnd jmpq 401020 <.plt>
  4011ff:	90                   	nop
  401200:	f3 0f 1e fa          	endbr64 
  401204:	68 1d 00 00 00       	pushq  $0x1d
  401209:	f2 e9 11 fe ff ff    	bnd jmpq 401020 <.plt>
  40120f:	90                   	nop
  401210:	f3 0f 1e fa          	endbr64 
  401214:	68 1e 00 00 00       	pushq  $0x1e
  401219:	f2 e9 01 fe ff ff    	bnd jmpq 401020 <.plt>
  40121f:	90                   	nop
  401220:	f3 0f 1e fa          	endbr64 
  401224:	68 1f 00 00 00       	pushq  $0x1f
  401229:	f2 e9 f1 fd ff ff    	bnd jmpq 401020 <.plt>
  40122f:	90                   	nop
  401230:	f3 0f 1e fa          	endbr64 
  401234:	68 20 00 00 00       	pushq  $0x20
  401239:	f2 e9 e1 fd ff ff    	bnd jmpq 401020 <.plt>
  40123f:	90                   	nop
  401240:	f3 0f 1e fa          	endbr64 
  401244:	68 21 00 00 00       	pushq  $0x21
  401249:	f2 e9 d1 fd ff ff    	bnd jmpq 401020 <.plt>
  40124f:	90                   	nop

Disassembly of section .plt.sec:

0000000000401250 <strcasecmp@plt>:
  401250:	f3 0f 1e fa          	endbr64 
  401254:	f2 ff 25 bd 5d 00 00 	bnd jmpq *0x5dbd(%rip)        # 407018 <strcasecmp@GLIBC_2.2.5>
  40125b:	0f 1f 44 00 00       	nopl   0x0(%rax,%rax,1)

0000000000401260 <__errno_location@plt>:
  401260:	f3 0f 1e fa          	endbr64 
  401264:	f2 ff 25 b5 5d 00 00 	bnd jmpq *0x5db5(%rip)        # 407020 <__errno_location@GLIBC_2.2.5>
  40126b:	0f 1f 44 00 00       	nopl   0x0(%rax,%rax,1)

0000000000401270 <srandom@plt>:
  401270:	f3 0f 1e fa          	endbr64 
  401274:	f2 ff 25 ad 5d 00 00 	bnd jmpq *0x5dad(%rip)        # 407028 <srandom@GLIBC_2.2.5>
  40127b:	0f 1f 44 00 00       	nopl   0x0(%rax,%rax,1)

0000000000401280 <strncpy@plt>:
  401280:	f3 0f 1e fa          	endbr64 
  401284:	f2 ff 25 a5 5d 00 00 	bnd jmpq *0x5da5(%rip)        # 407030 <strncpy@GLIBC_2.2.5>
  40128b:	0f 1f 44 00 00       	nopl   0x0(%rax,%rax,1)

0000000000401290 <strncmp@plt>:
  401290:	f3 0f 1e fa          	endbr64 
  401294:	f2 ff 25 9d 5d 00 00 	bnd jmpq *0x5d9d(%rip)        # 407038 <strncmp@GLIBC_2.2.5>
  40129b:	0f 1f 44 00 00       	nopl   0x0(%rax,%rax,1)

00000000004012a0 <strcpy@plt>:
  4012a0:	f3 0f 1e fa          	endbr64 
  4012a4:	f2 ff 25 95 5d 00 00 	bnd jmpq *0x5d95(%rip)        # 407040 <strcpy@GLIBC_2.2.5>
  4012ab:	0f 1f 44 00 00       	nopl   0x0(%rax,%rax,1)

00000000004012b0 <puts@plt>:
  4012b0:	f3 0f 1e fa          	endbr64 
  4012b4:	f2 ff 25 8d 5d 00 00 	bnd jmpq *0x5d8d(%rip)        # 407048 <puts@GLIBC_2.2.5>
  4012bb:	0f 1f 44 00 00       	nopl   0x0(%rax,%rax,1)

00000000004012c0 <write@plt>:
  4012c0:	f3 0f 1e fa          	endbr64 
  4012c4:	f2 ff 25 85 5d 00 00 	bnd jmpq *0x5d85(%rip)        # 407050 <write@GLIBC_2.2.5>
  4012cb:	0f 1f 44 00 00       	nopl   0x0(%rax,%rax,1)

00000000004012d0 <mmap@plt>:
  4012d0:	f3 0f 1e fa          	endbr64 
  4012d4:	f2 ff 25 7d 5d 00 00 	bnd jmpq *0x5d7d(%rip)        # 407058 <mmap@GLIBC_2.2.5>
  4012db:	0f 1f 44 00 00       	nopl   0x0(%rax,%rax,1)

00000000004012e0 <memset@plt>:
  4012e0:	f3 0f 1e fa          	endbr64 
  4012e4:	f2 ff 25 75 5d 00 00 	bnd jmpq *0x5d75(%rip)        # 407060 <memset@GLIBC_2.2.5>
  4012eb:	0f 1f 44 00 00       	nopl   0x0(%rax,%rax,1)

00000000004012f0 <alarm@plt>:
  4012f0:	f3 0f 1e fa          	endbr64 
  4012f4:	f2 ff 25 6d 5d 00 00 	bnd jmpq *0x5d6d(%rip)        # 407068 <alarm@GLIBC_2.2.5>
  4012fb:	0f 1f 44 00 00       	nopl   0x0(%rax,%rax,1)

0000000000401300 <close@plt>:
  401300:	f3 0f 1e fa          	endbr64 
  401304:	f2 ff 25 65 5d 00 00 	bnd jmpq *0x5d65(%rip)        # 407070 <close@GLIBC_2.2.5>
  40130b:	0f 1f 44 00 00       	nopl   0x0(%rax,%rax,1)

0000000000401310 <read@plt>:
  401310:	f3 0f 1e fa          	endbr64 
  401314:	f2 ff 25 5d 5d 00 00 	bnd jmpq *0x5d5d(%rip)        # 407078 <read@GLIBC_2.2.5>
  40131b:	0f 1f 44 00 00       	nopl   0x0(%rax,%rax,1)

0000000000401320 <strcmp@plt>:
  401320:	f3 0f 1e fa          	endbr64 
  401324:	f2 ff 25 55 5d 00 00 	bnd jmpq *0x5d55(%rip)        # 407080 <strcmp@GLIBC_2.2.5>
  40132b:	0f 1f 44 00 00       	nopl   0x0(%rax,%rax,1)

0000000000401330 <signal@plt>:
  401330:	f3 0f 1e fa          	endbr64 
  401334:	f2 ff 25 4d 5d 00 00 	bnd jmpq *0x5d4d(%rip)        # 407088 <signal@GLIBC_2.2.5>
  40133b:	0f 1f 44 00 00       	nopl   0x0(%rax,%rax,1)

0000000000401340 <gethostbyname@plt>:
  401340:	f3 0f 1e fa          	endbr64 
  401344:	f2 ff 25 45 5d 00 00 	bnd jmpq *0x5d45(%rip)        # 407090 <gethostbyname@GLIBC_2.2.5>
  40134b:	0f 1f 44 00 00       	nopl   0x0(%rax,%rax,1)

0000000000401350 <__memmove_chk@plt>:
  401350:	f3 0f 1e fa          	endbr64 
  401354:	f2 ff 25 3d 5d 00 00 	bnd jmpq *0x5d3d(%rip)        # 407098 <__memmove_chk@GLIBC_2.3.4>
  40135b:	0f 1f 44 00 00       	nopl   0x0(%rax,%rax,1)

0000000000401360 <strtol@plt>:
  401360:	f3 0f 1e fa          	endbr64 
  401364:	f2 ff 25 35 5d 00 00 	bnd jmpq *0x5d35(%rip)        # 4070a0 <strtol@GLIBC_2.2.5>
  40136b:	0f 1f 44 00 00       	nopl   0x0(%rax,%rax,1)

0000000000401370 <memcpy@plt>:
  401370:	f3 0f 1e fa          	endbr64 
  401374:	f2 ff 25 2d 5d 00 00 	bnd jmpq *0x5d2d(%rip)        # 4070a8 <memcpy@GLIBC_2.14>
  40137b:	0f 1f 44 00 00       	nopl   0x0(%rax,%rax,1)

0000000000401380 <time@plt>:
  401380:	f3 0f 1e fa          	endbr64 
  401384:	f2 ff 25 25 5d 00 00 	bnd jmpq *0x5d25(%rip)        # 4070b0 <time@GLIBC_2.2.5>
  40138b:	0f 1f 44 00 00       	nopl   0x0(%rax,%rax,1)

0000000000401390 <random@plt>:
  401390:	f3 0f 1e fa          	endbr64 
  401394:	f2 ff 25 1d 5d 00 00 	bnd jmpq *0x5d1d(%rip)        # 4070b8 <random@GLIBC_2.2.5>
  40139b:	0f 1f 44 00 00       	nopl   0x0(%rax,%rax,1)

00000000004013a0 <__isoc99_sscanf@plt>:
  4013a0:	f3 0f 1e fa          	endbr64 
  4013a4:	f2 ff 25 15 5d 00 00 	bnd jmpq *0x5d15(%rip)        # 4070c0 <__isoc99_sscanf@GLIBC_2.7>
  4013ab:	0f 1f 44 00 00       	nopl   0x0(%rax,%rax,1)

00000000004013b0 <munmap@plt>:
  4013b0:	f3 0f 1e fa          	endbr64 
  4013b4:	f2 ff 25 0d 5d 00 00 	bnd jmpq *0x5d0d(%rip)        # 4070c8 <munmap@GLIBC_2.2.5>
  4013bb:	0f 1f 44 00 00       	nopl   0x0(%rax,%rax,1)

00000000004013c0 <__printf_chk@plt>:
  4013c0:	f3 0f 1e fa          	endbr64 
  4013c4:	f2 ff 25 05 5d 00 00 	bnd jmpq *0x5d05(%rip)        # 4070d0 <__printf_chk@GLIBC_2.3.4>
  4013cb:	0f 1f 44 00 00       	nopl   0x0(%rax,%rax,1)

00000000004013d0 <fopen@plt>:
  4013d0:	f3 0f 1e fa          	endbr64 
  4013d4:	f2 ff 25 fd 5c 00 00 	bnd jmpq *0x5cfd(%rip)        # 4070d8 <fopen@GLIBC_2.2.5>
  4013db:	0f 1f 44 00 00       	nopl   0x0(%rax,%rax,1)

00000000004013e0 <getopt@plt>:
  4013e0:	f3 0f 1e fa          	endbr64 
  4013e4:	f2 ff 25 f5 5c 00 00 	bnd jmpq *0x5cf5(%rip)        # 4070e0 <getopt@GLIBC_2.2.5>
  4013eb:	0f 1f 44 00 00       	nopl   0x0(%rax,%rax,1)

00000000004013f0 <strtoul@plt>:
  4013f0:	f3 0f 1e fa          	endbr64 
  4013f4:	f2 ff 25 ed 5c 00 00 	bnd jmpq *0x5ced(%rip)        # 4070e8 <strtoul@GLIBC_2.2.5>
  4013fb:	0f 1f 44 00 00       	nopl   0x0(%rax,%rax,1)

0000000000401400 <gethostname@plt>:
  401400:	f3 0f 1e fa          	endbr64 
  401404:	f2 ff 25 e5 5c 00 00 	bnd jmpq *0x5ce5(%rip)        # 4070f0 <gethostname@GLIBC_2.2.5>
  40140b:	0f 1f 44 00 00       	nopl   0x0(%rax,%rax,1)

0000000000401410 <exit@plt>:
  401410:	f3 0f 1e fa          	endbr64 
  401414:	f2 ff 25 dd 5c 00 00 	bnd jmpq *0x5cdd(%rip)        # 4070f8 <exit@GLIBC_2.2.5>
  40141b:	0f 1f 44 00 00       	nopl   0x0(%rax,%rax,1)

0000000000401420 <connect@plt>:
  401420:	f3 0f 1e fa          	endbr64 
  401424:	f2 ff 25 d5 5c 00 00 	bnd jmpq *0x5cd5(%rip)        # 407100 <connect@GLIBC_2.2.5>
  40142b:	0f 1f 44 00 00       	nopl   0x0(%rax,%rax,1)

0000000000401430 <__fprintf_chk@plt>:
  401430:	f3 0f 1e fa          	endbr64 
  401434:	f2 ff 25 cd 5c 00 00 	bnd jmpq *0x5ccd(%rip)        # 407108 <__fprintf_chk@GLIBC_2.3.4>
  40143b:	0f 1f 44 00 00       	nopl   0x0(%rax,%rax,1)

0000000000401440 <getc@plt>:
  401440:	f3 0f 1e fa          	endbr64 
  401444:	f2 ff 25 c5 5c 00 00 	bnd jmpq *0x5cc5(%rip)        # 407110 <getc@GLIBC_2.2.5>
  40144b:	0f 1f 44 00 00       	nopl   0x0(%rax,%rax,1)

0000000000401450 <__sprintf_chk@plt>:
  401450:	f3 0f 1e fa          	endbr64 
  401454:	f2 ff 25 bd 5c 00 00 	bnd jmpq *0x5cbd(%rip)        # 407118 <__sprintf_chk@GLIBC_2.3.4>
  40145b:	0f 1f 44 00 00       	nopl   0x0(%rax,%rax,1)

0000000000401460 <socket@plt>:
  401460:	f3 0f 1e fa          	endbr64 
  401464:	f2 ff 25 b5 5c 00 00 	bnd jmpq *0x5cb5(%rip)        # 407120 <socket@GLIBC_2.2.5>
  40146b:	0f 1f 44 00 00       	nopl   0x0(%rax,%rax,1)

Disassembly of section .text:

0000000000401470 <_start>:
  401470:	f3 0f 1e fa          	endbr64 
  401474:	31 ed                	xor    %ebp,%ebp
  401476:	49 89 d1             	mov    %rdx,%r9
  401479:	5e                   	pop    %rsi
  40147a:	48 89 e2             	mov    %rsp,%rdx
  40147d:	48 83 e4 f0          	and    $0xfffffffffffffff0,%rsp
  401481:	50                   	push   %rax
  401482:	54                   	push   %rsp
  401483:	49 c7 c0 30 39 40 00 	mov    $0x403930,%r8
  40148a:	48 c7 c1 c0 38 40 00 	mov    $0x4038c0,%rcx
  401491:	48 c7 c7 99 17 40 00 	mov    $0x401799,%rdi
  401498:	ff 15 52 5b 00 00    	callq  *0x5b52(%rip)        # 406ff0 <__libc_start_main@GLIBC_2.2.5>
  40149e:	f4                   	hlt    
  40149f:	90                   	nop

00000000004014a0 <_dl_relocate_static_pie>:
  4014a0:	f3 0f 1e fa          	endbr64 
  4014a4:	c3                   	retq   
  4014a5:	66 2e 0f 1f 84 00 00 	nopw   %cs:0x0(%rax,%rax,1)
  4014ac:	00 00 00 
  4014af:	90                   	nop

00000000004014b0 <deregister_tm_clones>:
  4014b0:	b8 b0 74 40 00       	mov    $0x4074b0,%eax
  4014b5:	48 3d b0 74 40 00    	cmp    $0x4074b0,%rax
  4014bb:	74 13                	je     4014d0 <deregister_tm_clones+0x20>
  4014bd:	b8 00 00 00 00       	mov    $0x0,%eax
  4014c2:	48 85 c0             	test   %rax,%rax
  4014c5:	74 09                	je     4014d0 <deregister_tm_clones+0x20>
  4014c7:	bf b0 74 40 00       	mov    $0x4074b0,%edi
  4014cc:	ff e0                	jmpq   *%rax
  4014ce:	66 90                	xchg   %ax,%ax
  4014d0:	c3                   	retq   
  4014d1:	66 66 2e 0f 1f 84 00 	data16 nopw %cs:0x0(%rax,%rax,1)
  4014d8:	00 00 00 00 
  4014dc:	0f 1f 40 00          	nopl   0x0(%rax)

00000000004014e0 <register_tm_clones>:
  4014e0:	be b0 74 40 00       	mov    $0x4074b0,%esi
  4014e5:	48 81 ee b0 74 40 00 	sub    $0x4074b0,%rsi
  4014ec:	48 89 f0             	mov    %rsi,%rax
  4014ef:	48 c1 ee 3f          	shr    $0x3f,%rsi
  4014f3:	48 c1 f8 03          	sar    $0x3,%rax
  4014f7:	48 01 c6             	add    %rax,%rsi
  4014fa:	48 d1 fe             	sar    %rsi
  4014fd:	74 11                	je     401510 <register_tm_clones+0x30>
  4014ff:	b8 00 00 00 00       	mov    $0x0,%eax
  401504:	48 85 c0             	test   %rax,%rax
  401507:	74 07                	je     401510 <register_tm_clones+0x30>
  401509:	bf b0 74 40 00       	mov    $0x4074b0,%edi
  40150e:	ff e0                	jmpq   *%rax
  401510:	c3                   	retq   
  401511:	66 66 2e 0f 1f 84 00 	data16 nopw %cs:0x0(%rax,%rax,1)
  401518:	00 00 00 00 
  40151c:	0f 1f 40 00          	nopl   0x0(%rax)

0000000000401520 <__do_global_dtors_aux>:
  401520:	f3 0f 1e fa          	endbr64 
  401524:	80 3d bd 5f 00 00 00 	cmpb   $0x0,0x5fbd(%rip)        # 4074e8 <completed.8060>
  40152b:	75 13                	jne    401540 <__do_global_dtors_aux+0x20>
  40152d:	55                   	push   %rbp
  40152e:	48 89 e5             	mov    %rsp,%rbp
  401531:	e8 7a ff ff ff       	callq  4014b0 <deregister_tm_clones>
  401536:	c6 05 ab 5f 00 00 01 	movb   $0x1,0x5fab(%rip)        # 4074e8 <completed.8060>
  40153d:	5d                   	pop    %rbp
  40153e:	c3                   	retq   
  40153f:	90                   	nop
  401540:	c3                   	retq   
  401541:	66 66 2e 0f 1f 84 00 	data16 nopw %cs:0x0(%rax,%rax,1)
  401548:	00 00 00 00 
  40154c:	0f 1f 40 00          	nopl   0x0(%rax)

0000000000401550 <frame_dummy>:
  401550:	f3 0f 1e fa          	endbr64 
  401554:	eb 8a                	jmp    4014e0 <register_tm_clones>

0000000000401556 <usage>:
  401556:	50                   	push   %rax
  401557:	58                   	pop    %rax
  401558:	48 83 ec 08          	sub    $0x8,%rsp
  40155c:	48 89 fa             	mov    %rdi,%rdx
  40155f:	83 3d c2 5f 00 00 00 	cmpl   $0x0,0x5fc2(%rip)        # 407528 <is_checker>
  401566:	74 50                	je     4015b8 <usage+0x62>
  401568:	48 8d 35 99 2a 00 00 	lea    0x2a99(%rip),%rsi        # 404008 <_IO_stdin_used+0x8>
  40156f:	bf 01 00 00 00       	mov    $0x1,%edi
  401574:	b8 00 00 00 00       	mov    $0x0,%eax
  401579:	e8 42 fe ff ff       	callq  4013c0 <__printf_chk@plt>
  40157e:	48 8d 3d bb 2a 00 00 	lea    0x2abb(%rip),%rdi        # 404040 <_IO_stdin_used+0x40>
  401585:	e8 26 fd ff ff       	callq  4012b0 <puts@plt>
  40158a:	48 8d 3d 3f 2c 00 00 	lea    0x2c3f(%rip),%rdi        # 4041d0 <_IO_stdin_used+0x1d0>
  401591:	e8 1a fd ff ff       	callq  4012b0 <puts@plt>
  401596:	48 8d 3d cb 2a 00 00 	lea    0x2acb(%rip),%rdi        # 404068 <_IO_stdin_used+0x68>
  40159d:	e8 0e fd ff ff       	callq  4012b0 <puts@plt>
  4015a2:	48 8d 3d 41 2c 00 00 	lea    0x2c41(%rip),%rdi        # 4041ea <_IO_stdin_used+0x1ea>
  4015a9:	e8 02 fd ff ff       	callq  4012b0 <puts@plt>
  4015ae:	bf 00 00 00 00       	mov    $0x0,%edi
  4015b3:	e8 58 fe ff ff       	callq  401410 <exit@plt>
  4015b8:	48 8d 35 47 2c 00 00 	lea    0x2c47(%rip),%rsi        # 404206 <_IO_stdin_used+0x206>
  4015bf:	bf 01 00 00 00       	mov    $0x1,%edi
  4015c4:	b8 00 00 00 00       	mov    $0x0,%eax
  4015c9:	e8 f2 fd ff ff       	callq  4013c0 <__printf_chk@plt>
  4015ce:	48 8d 3d bb 2a 00 00 	lea    0x2abb(%rip),%rdi        # 404090 <_IO_stdin_used+0x90>
  4015d5:	e8 d6 fc ff ff       	callq  4012b0 <puts@plt>
  4015da:	48 8d 3d d7 2a 00 00 	lea    0x2ad7(%rip),%rdi        # 4040b8 <_IO_stdin_used+0xb8>
  4015e1:	e8 ca fc ff ff       	callq  4012b0 <puts@plt>
  4015e6:	48 8d 3d 37 2c 00 00 	lea    0x2c37(%rip),%rdi        # 404224 <_IO_stdin_used+0x224>
  4015ed:	e8 be fc ff ff       	callq  4012b0 <puts@plt>
  4015f2:	eb ba                	jmp    4015ae <usage+0x58>

00000000004015f4 <initialize_target>:
  4015f4:	55                   	push   %rbp
  4015f5:	53                   	push   %rbx
  4015f6:	48 81 ec 00 10 00 00 	sub    $0x1000,%rsp
  4015fd:	48 83 0c 24 00       	orq    $0x0,(%rsp)
  401602:	48 81 ec 00 10 00 00 	sub    $0x1000,%rsp
  401609:	48 83 0c 24 00       	orq    $0x0,(%rsp)
  40160e:	48 81 ec 18 01 00 00 	sub    $0x118,%rsp
  401615:	89 f5                	mov    %esi,%ebp
  401617:	64 48 8b 04 25 28 00 	mov    %fs:0x28,%rax
  40161e:	00 00 
  401620:	48 89 84 24 08 21 00 	mov    %rax,0x2108(%rsp)
  401627:	00 
  401628:	31 c0                	xor    %eax,%eax
  40162a:	89 3d e8 5e 00 00    	mov    %edi,0x5ee8(%rip)        # 407518 <check_level>
  401630:	8b 3d 1a 5b 00 00    	mov    0x5b1a(%rip),%edi        # 407150 <target_id>
  401636:	e8 59 22 00 00       	callq  403894 <gencookie>
  40163b:	89 c7                	mov    %eax,%edi
  40163d:	89 05 e1 5e 00 00    	mov    %eax,0x5ee1(%rip)        # 407524 <cookie>
  401643:	e8 4c 22 00 00       	callq  403894 <gencookie>
  401648:	89 05 d2 5e 00 00    	mov    %eax,0x5ed2(%rip)        # 407520 <authkey>
  40164e:	8b 05 fc 5a 00 00    	mov    0x5afc(%rip),%eax        # 407150 <target_id>
  401654:	8d 78 01             	lea    0x1(%rax),%edi
  401657:	e8 14 fc ff ff       	callq  401270 <srandom@plt>
  40165c:	e8 2f fd ff ff       	callq  401390 <random@plt>
  401661:	48 89 c7             	mov    %rax,%rdi
  401664:	e8 9b 03 00 00       	callq  401a04 <scramble>
  401669:	89 c3                	mov    %eax,%ebx
  40166b:	85 ed                	test   %ebp,%ebp
  40166d:	75 54                	jne    4016c3 <initialize_target+0xcf>
  40166f:	b8 00 00 00 00       	mov    $0x0,%eax
  401674:	01 d8                	add    %ebx,%eax
  401676:	0f b7 c0             	movzwl %ax,%eax
  401679:	8d 04 c5 00 01 00 00 	lea    0x100(,%rax,8),%eax
  401680:	89 c0                	mov    %eax,%eax
  401682:	48 89 05 1f 5e 00 00 	mov    %rax,0x5e1f(%rip)        # 4074a8 <buf_offset>
  401689:	c6 05 b8 6a 00 00 73 	movb   $0x73,0x6ab8(%rip)        # 408148 <target_prefix>
  401690:	83 3d 09 5e 00 00 00 	cmpl   $0x0,0x5e09(%rip)        # 4074a0 <notify>
  401697:	74 09                	je     4016a2 <initialize_target+0xae>
  401699:	83 3d 88 5e 00 00 00 	cmpl   $0x0,0x5e88(%rip)        # 407528 <is_checker>
  4016a0:	74 3a                	je     4016dc <initialize_target+0xe8>
  4016a2:	48 8b 84 24 08 21 00 	mov    0x2108(%rsp),%rax
  4016a9:	00 
  4016aa:	64 48 33 04 25 28 00 	xor    %fs:0x28,%rax
  4016b1:	00 00 
  4016b3:	0f 85 db 00 00 00    	jne    401794 <initialize_target+0x1a0>
  4016b9:	48 81 c4 18 21 00 00 	add    $0x2118,%rsp
  4016c0:	5b                   	pop    %rbx
  4016c1:	5d                   	pop    %rbp
  4016c2:	c3                   	retq   
  4016c3:	bf 00 00 00 00       	mov    $0x0,%edi
  4016c8:	e8 b3 fc ff ff       	callq  401380 <time@plt>
  4016cd:	48 89 c7             	mov    %rax,%rdi
  4016d0:	e8 9b fb ff ff       	callq  401270 <srandom@plt>
  4016d5:	e8 b6 fc ff ff       	callq  401390 <random@plt>
  4016da:	eb 98                	jmp    401674 <initialize_target+0x80>
  4016dc:	48 89 e7             	mov    %rsp,%rdi
  4016df:	be 00 01 00 00       	mov    $0x100,%esi
  4016e4:	e8 17 fd ff ff       	callq  401400 <gethostname@plt>
  4016e9:	89 c5                	mov    %eax,%ebp
  4016eb:	85 c0                	test   %eax,%eax
  4016ed:	75 26                	jne    401715 <initialize_target+0x121>
  4016ef:	89 c3                	mov    %eax,%ebx
  4016f1:	48 63 c3             	movslq %ebx,%rax
  4016f4:	48 8d 15 85 5a 00 00 	lea    0x5a85(%rip),%rdx        # 407180 <host_table>
  4016fb:	48 8b 3c c2          	mov    (%rdx,%rax,8),%rdi
  4016ff:	48 85 ff             	test   %rdi,%rdi
  401702:	74 2c                	je     401730 <initialize_target+0x13c>
  401704:	48 89 e6             	mov    %rsp,%rsi
  401707:	e8 44 fb ff ff       	callq  401250 <strcasecmp@plt>
  40170c:	85 c0                	test   %eax,%eax
  40170e:	74 1b                	je     40172b <initialize_target+0x137>
  401710:	83 c3 01             	add    $0x1,%ebx
  401713:	eb dc                	jmp    4016f1 <initialize_target+0xfd>
  401715:	48 8d 3d cc 29 00 00 	lea    0x29cc(%rip),%rdi        # 4040e8 <_IO_stdin_used+0xe8>
  40171c:	e8 8f fb ff ff       	callq  4012b0 <puts@plt>
  401721:	bf 08 00 00 00       	mov    $0x8,%edi
  401726:	e8 e5 fc ff ff       	callq  401410 <exit@plt>
  40172b:	bd 01 00 00 00       	mov    $0x1,%ebp
  401730:	85 ed                	test   %ebp,%ebp
  401732:	74 3d                	je     401771 <initialize_target+0x17d>
  401734:	48 8d bc 24 00 01 00 	lea    0x100(%rsp),%rdi
  40173b:	00 
  40173c:	e8 98 1e 00 00       	callq  4035d9 <init_driver>
  401741:	85 c0                	test   %eax,%eax
  401743:	0f 89 59 ff ff ff    	jns    4016a2 <initialize_target+0xae>
  401749:	48 8d 94 24 00 01 00 	lea    0x100(%rsp),%rdx
  401750:	00 
  401751:	48 8d 35 08 2a 00 00 	lea    0x2a08(%rip),%rsi        # 404160 <_IO_stdin_used+0x160>
  401758:	bf 01 00 00 00       	mov    $0x1,%edi
  40175d:	b8 00 00 00 00       	mov    $0x0,%eax
  401762:	e8 59 fc ff ff       	callq  4013c0 <__printf_chk@plt>
  401767:	bf 08 00 00 00       	mov    $0x8,%edi
  40176c:	e8 9f fc ff ff       	callq  401410 <exit@plt>
  401771:	48 89 e2             	mov    %rsp,%rdx
  401774:	48 8d 35 a5 29 00 00 	lea    0x29a5(%rip),%rsi        # 404120 <_IO_stdin_used+0x120>
  40177b:	bf 01 00 00 00       	mov    $0x1,%edi
  401780:	b8 00 00 00 00       	mov    $0x0,%eax
  401785:	e8 36 fc ff ff       	callq  4013c0 <__printf_chk@plt>
  40178a:	bf 08 00 00 00       	mov    $0x8,%edi
  40178f:	e8 7c fc ff ff       	callq  401410 <exit@plt>
  401794:	e8 58 11 00 00       	callq  4028f1 <__stack_chk_fail>

0000000000401799 <main>:
  401799:	f3 0f 1e fa          	endbr64 
  40179d:	41 56                	push   %r14
  40179f:	41 55                	push   %r13
  4017a1:	41 54                	push   %r12
  4017a3:	55                   	push   %rbp
  4017a4:	53                   	push   %rbx
  4017a5:	48 83 ec 60          	sub    $0x60,%rsp
  4017a9:	89 fd                	mov    %edi,%ebp
  4017ab:	48 89 f3             	mov    %rsi,%rbx
  4017ae:	64 48 8b 04 25 28 00 	mov    %fs:0x28,%rax
  4017b5:	00 00 
  4017b7:	48 89 44 24 58       	mov    %rax,0x58(%rsp)
  4017bc:	31 c0                	xor    %eax,%eax
  4017be:	48 b8 53 70 69 72 69 	movabs $0x6465746972697053,%rax
  4017c5:	74 65 64 
  4017c8:	48 89 04 24          	mov    %rax,(%rsp)
  4017cc:	c7 44 24 08 41 77 61 	movl   $0x79617741,0x8(%rsp)
  4017d3:	79 
  4017d4:	66 c7 44 24 0c 43 4e 	movw   $0x4e43,0xc(%rsp)
  4017db:	c6 44 24 0e 00       	movb   $0x0,0xe(%rsp)
  4017e0:	48 c7 c6 e0 27 40 00 	mov    $0x4027e0,%rsi
  4017e7:	bf 0b 00 00 00       	mov    $0xb,%edi
  4017ec:	e8 3f fb ff ff       	callq  401330 <signal@plt>
  4017f1:	48 c7 c6 86 27 40 00 	mov    $0x402786,%rsi
  4017f8:	bf 07 00 00 00       	mov    $0x7,%edi
  4017fd:	e8 2e fb ff ff       	callq  401330 <signal@plt>
  401802:	48 c7 c6 3a 28 40 00 	mov    $0x40283a,%rsi
  401809:	bf 04 00 00 00       	mov    $0x4,%edi
  40180e:	e8 1d fb ff ff       	callq  401330 <signal@plt>
  401813:	83 3d 0e 5d 00 00 00 	cmpl   $0x0,0x5d0e(%rip)        # 407528 <is_checker>
  40181a:	75 26                	jne    401842 <main+0xa9>
  40181c:	4c 8d 25 24 2a 00 00 	lea    0x2a24(%rip),%r12        # 404247 <_IO_stdin_used+0x247>
  401823:	48 8b 05 96 5c 00 00 	mov    0x5c96(%rip),%rax        # 4074c0 <stdin@@GLIBC_2.2.5>
  40182a:	48 89 05 df 5c 00 00 	mov    %rax,0x5cdf(%rip)        # 407510 <infile>
  401831:	41 bd 00 00 00 00    	mov    $0x0,%r13d
  401837:	41 be 00 00 00 00    	mov    $0x0,%r14d
  40183d:	e9 8d 00 00 00       	jmpq   4018cf <main+0x136>
  401842:	48 c7 c6 94 28 40 00 	mov    $0x402894,%rsi
  401849:	bf 0e 00 00 00       	mov    $0xe,%edi
  40184e:	e8 dd fa ff ff       	callq  401330 <signal@plt>
  401853:	bf 02 00 00 00       	mov    $0x2,%edi
  401858:	e8 93 fa ff ff       	callq  4012f0 <alarm@plt>
  40185d:	4c 8d 25 d9 29 00 00 	lea    0x29d9(%rip),%r12        # 40423d <_IO_stdin_used+0x23d>
  401864:	eb bd                	jmp    401823 <main+0x8a>
  401866:	48 8b 3b             	mov    (%rbx),%rdi
  401869:	e8 e8 fc ff ff       	callq  401556 <usage>
  40186e:	48 8d 35 9f 2a 00 00 	lea    0x2a9f(%rip),%rsi        # 404314 <_IO_stdin_used+0x314>
  401875:	48 8b 3d 4c 5c 00 00 	mov    0x5c4c(%rip),%rdi        # 4074c8 <optarg@@GLIBC_2.2.5>
  40187c:	e8 4f fb ff ff       	callq  4013d0 <fopen@plt>
  401881:	48 89 05 88 5c 00 00 	mov    %rax,0x5c88(%rip)        # 407510 <infile>
  401888:	48 85 c0             	test   %rax,%rax
  40188b:	75 42                	jne    4018cf <main+0x136>
  40188d:	48 8b 0d 34 5c 00 00 	mov    0x5c34(%rip),%rcx        # 4074c8 <optarg@@GLIBC_2.2.5>
  401894:	48 8d 15 b1 29 00 00 	lea    0x29b1(%rip),%rdx        # 40424c <_IO_stdin_used+0x24c>
  40189b:	be 01 00 00 00       	mov    $0x1,%esi
  4018a0:	48 8b 3d 39 5c 00 00 	mov    0x5c39(%rip),%rdi        # 4074e0 <stderr@@GLIBC_2.2.5>
  4018a7:	e8 84 fb ff ff       	callq  401430 <__fprintf_chk@plt>
  4018ac:	b8 01 00 00 00       	mov    $0x1,%eax
  4018b1:	e9 2c 01 00 00       	jmpq   4019e2 <main+0x249>
  4018b6:	ba 10 00 00 00       	mov    $0x10,%edx
  4018bb:	be 00 00 00 00       	mov    $0x0,%esi
  4018c0:	48 8b 3d 01 5c 00 00 	mov    0x5c01(%rip),%rdi        # 4074c8 <optarg@@GLIBC_2.2.5>
  4018c7:	e8 24 fb ff ff       	callq  4013f0 <strtoul@plt>
  4018cc:	41 89 c6             	mov    %eax,%r14d
  4018cf:	4c 89 e2             	mov    %r12,%rdx
  4018d2:	48 89 de             	mov    %rbx,%rsi
  4018d5:	89 ef                	mov    %ebp,%edi
  4018d7:	e8 04 fb ff ff       	callq  4013e0 <getopt@plt>
  4018dc:	3c ff                	cmp    $0xff,%al
  4018de:	74 7b                	je     40195b <main+0x1c2>
  4018e0:	0f be c8             	movsbl %al,%ecx
  4018e3:	83 e8 61             	sub    $0x61,%eax
  4018e6:	3c 14                	cmp    $0x14,%al
  4018e8:	77 51                	ja     40193b <main+0x1a2>
  4018ea:	0f b6 c0             	movzbl %al,%eax
  4018ed:	48 8d 15 98 29 00 00 	lea    0x2998(%rip),%rdx        # 40428c <_IO_stdin_used+0x28c>
  4018f4:	48 63 04 82          	movslq (%rdx,%rax,4),%rax
  4018f8:	48 01 d0             	add    %rdx,%rax
  4018fb:	3e ff e0             	notrack jmpq *%rax
  4018fe:	ba 0a 00 00 00       	mov    $0xa,%edx
  401903:	be 00 00 00 00       	mov    $0x0,%esi
  401908:	48 8b 3d b9 5b 00 00 	mov    0x5bb9(%rip),%rdi        # 4074c8 <optarg@@GLIBC_2.2.5>
  40190f:	e8 4c fa ff ff       	callq  401360 <strtol@plt>
  401914:	41 89 c5             	mov    %eax,%r13d
  401917:	eb b6                	jmp    4018cf <main+0x136>
  401919:	c7 05 7d 5b 00 00 00 	movl   $0x0,0x5b7d(%rip)        # 4074a0 <notify>
  401920:	00 00 00 
  401923:	eb aa                	jmp    4018cf <main+0x136>
  401925:	48 89 e7             	mov    %rsp,%rdi
  401928:	ba 50 00 00 00       	mov    $0x50,%edx
  40192d:	48 8b 35 94 5b 00 00 	mov    0x5b94(%rip),%rsi        # 4074c8 <optarg@@GLIBC_2.2.5>
  401934:	e8 47 f9 ff ff       	callq  401280 <strncpy@plt>
  401939:	eb 94                	jmp    4018cf <main+0x136>
  40193b:	89 ca                	mov    %ecx,%edx
  40193d:	48 8d 35 25 29 00 00 	lea    0x2925(%rip),%rsi        # 404269 <_IO_stdin_used+0x269>
  401944:	bf 01 00 00 00       	mov    $0x1,%edi
  401949:	b8 00 00 00 00       	mov    $0x0,%eax
  40194e:	e8 6d fa ff ff       	callq  4013c0 <__printf_chk@plt>
  401953:	48 8b 3b             	mov    (%rbx),%rdi
  401956:	e8 fb fb ff ff       	callq  401556 <usage>
  40195b:	be 01 00 00 00       	mov    $0x1,%esi
  401960:	44 89 ef             	mov    %r13d,%edi
  401963:	e8 8c fc ff ff       	callq  4015f4 <initialize_target>
  401968:	83 3d b9 5b 00 00 00 	cmpl   $0x0,0x5bb9(%rip)        # 407528 <is_checker>
  40196f:	74 3f                	je     4019b0 <main+0x217>
  401971:	44 39 35 a8 5b 00 00 	cmp    %r14d,0x5ba8(%rip)        # 407520 <authkey>
  401978:	75 13                	jne    40198d <main+0x1f4>
  40197a:	48 89 e7             	mov    %rsp,%rdi
  40197d:	48 8b 35 dc 57 00 00 	mov    0x57dc(%rip),%rsi        # 407160 <user_id>
  401984:	e8 97 f9 ff ff       	callq  401320 <strcmp@plt>
  401989:	85 c0                	test   %eax,%eax
  40198b:	74 23                	je     4019b0 <main+0x217>
  40198d:	44 89 f2             	mov    %r14d,%edx
  401990:	48 8d 35 f1 27 00 00 	lea    0x27f1(%rip),%rsi        # 404188 <_IO_stdin_used+0x188>
  401997:	bf 01 00 00 00       	mov    $0x1,%edi
  40199c:	b8 00 00 00 00       	mov    $0x0,%eax
  4019a1:	e8 1a fa ff ff       	callq  4013c0 <__printf_chk@plt>
  4019a6:	b8 00 00 00 00       	mov    $0x0,%eax
  4019ab:	e8 1f 0a 00 00       	callq  4023cf <check_fail>
  4019b0:	8b 15 6e 5b 00 00    	mov    0x5b6e(%rip),%edx        # 407524 <cookie>
  4019b6:	48 8d 35 bf 28 00 00 	lea    0x28bf(%rip),%rsi        # 40427c <_IO_stdin_used+0x27c>
  4019bd:	bf 01 00 00 00       	mov    $0x1,%edi
  4019c2:	b8 00 00 00 00       	mov    $0x0,%eax
  4019c7:	e8 f4 f9 ff ff       	callq  4013c0 <__printf_chk@plt>
  4019cc:	be 01 00 00 00       	mov    $0x1,%esi
  4019d1:	48 8b 3d d0 5a 00 00 	mov    0x5ad0(%rip),%rdi        # 4074a8 <buf_offset>
  4019d8:	e8 6e 0f 00 00       	callq  40294b <launch>
  4019dd:	b8 00 00 00 00       	mov    $0x0,%eax
  4019e2:	48 8b 4c 24 58       	mov    0x58(%rsp),%rcx
  4019e7:	64 48 33 0c 25 28 00 	xor    %fs:0x28,%rcx
  4019ee:	00 00 
  4019f0:	75 0d                	jne    4019ff <main+0x266>
  4019f2:	48 83 c4 60          	add    $0x60,%rsp
  4019f6:	5b                   	pop    %rbx
  4019f7:	5d                   	pop    %rbp
  4019f8:	41 5c                	pop    %r12
  4019fa:	41 5d                	pop    %r13
  4019fc:	41 5e                	pop    %r14
  4019fe:	c3                   	retq   
  4019ff:	e8 ed 0e 00 00       	callq  4028f1 <__stack_chk_fail>

0000000000401a04 <scramble>:
  401a04:	f3 0f 1e fa          	endbr64 
  401a08:	48 83 ec 38          	sub    $0x38,%rsp
  401a0c:	64 48 8b 04 25 28 00 	mov    %fs:0x28,%rax
  401a13:	00 00 
  401a15:	48 89 44 24 28       	mov    %rax,0x28(%rsp)
  401a1a:	31 c0                	xor    %eax,%eax
  401a1c:	83 f8 09             	cmp    $0x9,%eax
  401a1f:	77 12                	ja     401a33 <scramble+0x2f>
  401a21:	69 d0 18 af 00 00    	imul   $0xaf18,%eax,%edx
  401a27:	01 fa                	add    %edi,%edx
  401a29:	89 c1                	mov    %eax,%ecx
  401a2b:	89 14 8c             	mov    %edx,(%rsp,%rcx,4)
  401a2e:	83 c0 01             	add    $0x1,%eax
  401a31:	eb e9                	jmp    401a1c <scramble+0x18>
  401a33:	8b 44 24 18          	mov    0x18(%rsp),%eax
  401a37:	69 c0 82 c0 00 00    	imul   $0xc082,%eax,%eax
  401a3d:	89 44 24 18          	mov    %eax,0x18(%rsp)
  401a41:	8b 44 24 14          	mov    0x14(%rsp),%eax
  401a45:	69 c0 da f6 00 00    	imul   $0xf6da,%eax,%eax
  401a4b:	89 44 24 14          	mov    %eax,0x14(%rsp)
  401a4f:	8b 44 24 08          	mov    0x8(%rsp),%eax
  401a53:	69 c0 63 63 00 00    	imul   $0x6363,%eax,%eax
  401a59:	89 44 24 08          	mov    %eax,0x8(%rsp)
  401a5d:	8b 04 24             	mov    (%rsp),%eax
  401a60:	69 c0 f8 14 00 00    	imul   $0x14f8,%eax,%eax
  401a66:	89 04 24             	mov    %eax,(%rsp)
  401a69:	8b 04 24             	mov    (%rsp),%eax
  401a6c:	69 c0 52 da 00 00    	imul   $0xda52,%eax,%eax
  401a72:	89 04 24             	mov    %eax,(%rsp)
  401a75:	8b 44 24 10          	mov    0x10(%rsp),%eax
  401a79:	69 c0 46 82 00 00    	imul   $0x8246,%eax,%eax
  401a7f:	89 44 24 10          	mov    %eax,0x10(%rsp)
  401a83:	8b 44 24 24          	mov    0x24(%rsp),%eax
  401a87:	69 c0 34 c5 00 00    	imul   $0xc534,%eax,%eax
  401a8d:	89 44 24 24          	mov    %eax,0x24(%rsp)
  401a91:	8b 44 24 04          	mov    0x4(%rsp),%eax
  401a95:	69 c0 07 35 00 00    	imul   $0x3507,%eax,%eax
  401a9b:	89 44 24 04          	mov    %eax,0x4(%rsp)
  401a9f:	8b 44 24 18          	mov    0x18(%rsp),%eax
  401aa3:	69 c0 e0 80 00 00    	imul   $0x80e0,%eax,%eax
  401aa9:	89 44 24 18          	mov    %eax,0x18(%rsp)
  401aad:	8b 44 24 20          	mov    0x20(%rsp),%eax
  401ab1:	69 c0 1a e0 00 00    	imul   $0xe01a,%eax,%eax
  401ab7:	89 44 24 20          	mov    %eax,0x20(%rsp)
  401abb:	8b 04 24             	mov    (%rsp),%eax
  401abe:	69 c0 9e 7e 00 00    	imul   $0x7e9e,%eax,%eax
  401ac4:	89 04 24             	mov    %eax,(%rsp)
  401ac7:	8b 44 24 10          	mov    0x10(%rsp),%eax
  401acb:	69 c0 69 97 00 00    	imul   $0x9769,%eax,%eax
  401ad1:	89 44 24 10          	mov    %eax,0x10(%rsp)
  401ad5:	8b 44 24 08          	mov    0x8(%rsp),%eax
  401ad9:	69 c0 d5 da 00 00    	imul   $0xdad5,%eax,%eax
  401adf:	89 44 24 08          	mov    %eax,0x8(%rsp)
  401ae3:	8b 44 24 1c          	mov    0x1c(%rsp),%eax
  401ae7:	69 c0 e8 f6 00 00    	imul   $0xf6e8,%eax,%eax
  401aed:	89 44 24 1c          	mov    %eax,0x1c(%rsp)
  401af1:	8b 44 24 0c          	mov    0xc(%rsp),%eax
  401af5:	69 c0 11 e1 00 00    	imul   $0xe111,%eax,%eax
  401afb:	89 44 24 0c          	mov    %eax,0xc(%rsp)
  401aff:	8b 04 24             	mov    (%rsp),%eax
  401b02:	69 c0 78 5c 00 00    	imul   $0x5c78,%eax,%eax
  401b08:	89 04 24             	mov    %eax,(%rsp)
  401b0b:	8b 44 24 08          	mov    0x8(%rsp),%eax
  401b0f:	69 c0 0d 6e 00 00    	imul   $0x6e0d,%eax,%eax
  401b15:	89 44 24 08          	mov    %eax,0x8(%rsp)
  401b19:	8b 04 24             	mov    (%rsp),%eax
  401b1c:	69 c0 4b 75 00 00    	imul   $0x754b,%eax,%eax
  401b22:	89 04 24             	mov    %eax,(%rsp)
  401b25:	8b 44 24 10          	mov    0x10(%rsp),%eax
  401b29:	69 c0 b3 6b 00 00    	imul   $0x6bb3,%eax,%eax
  401b2f:	89 44 24 10          	mov    %eax,0x10(%rsp)
  401b33:	8b 44 24 1c          	mov    0x1c(%rsp),%eax
  401b37:	69 c0 be 13 00 00    	imul   $0x13be,%eax,%eax
  401b3d:	89 44 24 1c          	mov    %eax,0x1c(%rsp)
  401b41:	8b 44 24 08          	mov    0x8(%rsp),%eax
  401b45:	69 c0 86 c0 00 00    	imul   $0xc086,%eax,%eax
  401b4b:	89 44 24 08          	mov    %eax,0x8(%rsp)
  401b4f:	8b 04 24             	mov    (%rsp),%eax
  401b52:	69 c0 f9 05 00 00    	imul   $0x5f9,%eax,%eax
  401b58:	89 04 24             	mov    %eax,(%rsp)
  401b5b:	8b 44 24 24          	mov    0x24(%rsp),%eax
  401b5f:	69 c0 84 e2 00 00    	imul   $0xe284,%eax,%eax
  401b65:	89 44 24 24          	mov    %eax,0x24(%rsp)
  401b69:	8b 44 24 10          	mov    0x10(%rsp),%eax
  401b6d:	69 c0 19 32 00 00    	imul   $0x3219,%eax,%eax
  401b73:	89 44 24 10          	mov    %eax,0x10(%rsp)
  401b77:	8b 44 24 0c          	mov    0xc(%rsp),%eax
  401b7b:	69 c0 6b 0e 00 00    	imul   $0xe6b,%eax,%eax
  401b81:	89 44 24 0c          	mov    %eax,0xc(%rsp)
  401b85:	8b 44 24 14          	mov    0x14(%rsp),%eax
  401b89:	69 c0 b4 48 00 00    	imul   $0x48b4,%eax,%eax
  401b8f:	89 44 24 14          	mov    %eax,0x14(%rsp)
  401b93:	8b 44 24 24          	mov    0x24(%rsp),%eax
  401b97:	69 c0 b6 74 00 00    	imul   $0x74b6,%eax,%eax
  401b9d:	89 44 24 24          	mov    %eax,0x24(%rsp)
  401ba1:	8b 44 24 24          	mov    0x24(%rsp),%eax
  401ba5:	69 c0 13 de 00 00    	imul   $0xde13,%eax,%eax
  401bab:	89 44 24 24          	mov    %eax,0x24(%rsp)
  401baf:	8b 44 24 20          	mov    0x20(%rsp),%eax
  401bb3:	69 c0 a0 c1 00 00    	imul   $0xc1a0,%eax,%eax
  401bb9:	89 44 24 20          	mov    %eax,0x20(%rsp)
  401bbd:	8b 44 24 14          	mov    0x14(%rsp),%eax
  401bc1:	69 c0 ea fc 00 00    	imul   $0xfcea,%eax,%eax
  401bc7:	89 44 24 14          	mov    %eax,0x14(%rsp)
  401bcb:	8b 44 24 08          	mov    0x8(%rsp),%eax
  401bcf:	69 c0 5f 69 00 00    	imul   $0x695f,%eax,%eax
  401bd5:	89 44 24 08          	mov    %eax,0x8(%rsp)
  401bd9:	8b 44 24 04          	mov    0x4(%rsp),%eax
  401bdd:	69 c0 45 44 00 00    	imul   $0x4445,%eax,%eax
  401be3:	89 44 24 04          	mov    %eax,0x4(%rsp)
  401be7:	8b 44 24 14          	mov    0x14(%rsp),%eax
  401beb:	69 c0 b5 ac 00 00    	imul   $0xacb5,%eax,%eax
  401bf1:	89 44 24 14          	mov    %eax,0x14(%rsp)
  401bf5:	8b 44 24 08          	mov    0x8(%rsp),%eax
  401bf9:	69 c0 dd a8 00 00    	imul   $0xa8dd,%eax,%eax
  401bff:	89 44 24 08          	mov    %eax,0x8(%rsp)
  401c03:	8b 44 24 20          	mov    0x20(%rsp),%eax
  401c07:	69 c0 d5 43 00 00    	imul   $0x43d5,%eax,%eax
  401c0d:	89 44 24 20          	mov    %eax,0x20(%rsp)
  401c11:	8b 44 24 1c          	mov    0x1c(%rsp),%eax
  401c15:	69 c0 6d 5e 00 00    	imul   $0x5e6d,%eax,%eax
  401c1b:	89 44 24 1c          	mov    %eax,0x1c(%rsp)
  401c1f:	8b 44 24 08          	mov    0x8(%rsp),%eax
  401c23:	69 c0 a0 52 00 00    	imul   $0x52a0,%eax,%eax
  401c29:	89 44 24 08          	mov    %eax,0x8(%rsp)
  401c2d:	8b 44 24 10          	mov    0x10(%rsp),%eax
  401c31:	69 c0 15 8a 00 00    	imul   $0x8a15,%eax,%eax
  401c37:	89 44 24 10          	mov    %eax,0x10(%rsp)
  401c3b:	8b 44 24 0c          	mov    0xc(%rsp),%eax
  401c3f:	69 c0 67 9f 00 00    	imul   $0x9f67,%eax,%eax
  401c45:	89 44 24 0c          	mov    %eax,0xc(%rsp)
  401c49:	8b 44 24 20          	mov    0x20(%rsp),%eax
  401c4d:	69 c0 88 98 00 00    	imul   $0x9888,%eax,%eax
  401c53:	89 44 24 20          	mov    %eax,0x20(%rsp)
  401c57:	8b 44 24 18          	mov    0x18(%rsp),%eax
  401c5b:	69 c0 62 ce 00 00    	imul   $0xce62,%eax,%eax
  401c61:	89 44 24 18          	mov    %eax,0x18(%rsp)
  401c65:	8b 44 24 08          	mov    0x8(%rsp),%eax
  401c69:	69 c0 db 3a 00 00    	imul   $0x3adb,%eax,%eax
  401c6f:	89 44 24 08          	mov    %eax,0x8(%rsp)
  401c73:	8b 44 24 1c          	mov    0x1c(%rsp),%eax
  401c77:	69 c0 5a c1 00 00    	imul   $0xc15a,%eax,%eax
  401c7d:	89 44 24 1c          	mov    %eax,0x1c(%rsp)
  401c81:	8b 44 24 20          	mov    0x20(%rsp),%eax
  401c85:	69 c0 a3 92 00 00    	imul   $0x92a3,%eax,%eax
  401c8b:	89 44 24 20          	mov    %eax,0x20(%rsp)
  401c8f:	8b 44 24 10          	mov    0x10(%rsp),%eax
  401c93:	69 c0 eb ed 00 00    	imul   $0xedeb,%eax,%eax
  401c99:	89 44 24 10          	mov    %eax,0x10(%rsp)
  401c9d:	8b 44 24 20          	mov    0x20(%rsp),%eax
  401ca1:	69 c0 ab 25 00 00    	imul   $0x25ab,%eax,%eax
  401ca7:	89 44 24 20          	mov    %eax,0x20(%rsp)
  401cab:	8b 44 24 14          	mov    0x14(%rsp),%eax
  401caf:	69 c0 f0 e8 00 00    	imul   $0xe8f0,%eax,%eax
  401cb5:	89 44 24 14          	mov    %eax,0x14(%rsp)
  401cb9:	8b 44 24 14          	mov    0x14(%rsp),%eax
  401cbd:	69 c0 b7 2e 00 00    	imul   $0x2eb7,%eax,%eax
  401cc3:	89 44 24 14          	mov    %eax,0x14(%rsp)
  401cc7:	8b 44 24 1c          	mov    0x1c(%rsp),%eax
  401ccb:	69 c0 82 23 00 00    	imul   $0x2382,%eax,%eax
  401cd1:	89 44 24 1c          	mov    %eax,0x1c(%rsp)
  401cd5:	8b 44 24 0c          	mov    0xc(%rsp),%eax
  401cd9:	69 c0 0d ae 00 00    	imul   $0xae0d,%eax,%eax
  401cdf:	89 44 24 0c          	mov    %eax,0xc(%rsp)
  401ce3:	8b 44 24 20          	mov    0x20(%rsp),%eax
  401ce7:	69 c0 31 94 00 00    	imul   $0x9431,%eax,%eax
  401ced:	89 44 24 20          	mov    %eax,0x20(%rsp)
  401cf1:	8b 44 24 14          	mov    0x14(%rsp),%eax
  401cf5:	69 c0 b2 6b 00 00    	imul   $0x6bb2,%eax,%eax
  401cfb:	89 44 24 14          	mov    %eax,0x14(%rsp)
  401cff:	8b 44 24 0c          	mov    0xc(%rsp),%eax
  401d03:	69 c0 e1 70 00 00    	imul   $0x70e1,%eax,%eax
  401d09:	89 44 24 0c          	mov    %eax,0xc(%rsp)
  401d0d:	8b 44 24 18          	mov    0x18(%rsp),%eax
  401d11:	69 c0 f6 1b 00 00    	imul   $0x1bf6,%eax,%eax
  401d17:	89 44 24 18          	mov    %eax,0x18(%rsp)
  401d1b:	8b 44 24 10          	mov    0x10(%rsp),%eax
  401d1f:	69 c0 f6 b1 00 00    	imul   $0xb1f6,%eax,%eax
  401d25:	89 44 24 10          	mov    %eax,0x10(%rsp)
  401d29:	8b 44 24 14          	mov    0x14(%rsp),%eax
  401d2d:	69 c0 1b be 00 00    	imul   $0xbe1b,%eax,%eax
  401d33:	89 44 24 14          	mov    %eax,0x14(%rsp)
  401d37:	8b 44 24 08          	mov    0x8(%rsp),%eax
  401d3b:	69 c0 bb 95 00 00    	imul   $0x95bb,%eax,%eax
  401d41:	89 44 24 08          	mov    %eax,0x8(%rsp)
  401d45:	8b 44 24 1c          	mov    0x1c(%rsp),%eax
  401d49:	69 c0 71 c3 00 00    	imul   $0xc371,%eax,%eax
  401d4f:	89 44 24 1c          	mov    %eax,0x1c(%rsp)
  401d53:	8b 44 24 0c          	mov    0xc(%rsp),%eax
  401d57:	69 c0 e5 11 00 00    	imul   $0x11e5,%eax,%eax
  401d5d:	89 44 24 0c          	mov    %eax,0xc(%rsp)
  401d61:	8b 44 24 20          	mov    0x20(%rsp),%eax
  401d65:	69 c0 0f da 00 00    	imul   $0xda0f,%eax,%eax
  401d6b:	89 44 24 20          	mov    %eax,0x20(%rsp)
  401d6f:	8b 44 24 08          	mov    0x8(%rsp),%eax
  401d73:	69 c0 a3 e5 00 00    	imul   $0xe5a3,%eax,%eax
  401d79:	89 44 24 08          	mov    %eax,0x8(%rsp)
  401d7d:	8b 44 24 14          	mov    0x14(%rsp),%eax
  401d81:	69 c0 1b 57 00 00    	imul   $0x571b,%eax,%eax
  401d87:	89 44 24 14          	mov    %eax,0x14(%rsp)
  401d8b:	8b 04 24             	mov    (%rsp),%eax
  401d8e:	69 c0 ab 69 00 00    	imul   $0x69ab,%eax,%eax
  401d94:	89 04 24             	mov    %eax,(%rsp)
  401d97:	8b 44 24 24          	mov    0x24(%rsp),%eax
  401d9b:	69 c0 39 64 00 00    	imul   $0x6439,%eax,%eax
  401da1:	89 44 24 24          	mov    %eax,0x24(%rsp)
  401da5:	8b 04 24             	mov    (%rsp),%eax
  401da8:	69 c0 67 5d 00 00    	imul   $0x5d67,%eax,%eax
  401dae:	89 04 24             	mov    %eax,(%rsp)
  401db1:	8b 44 24 08          	mov    0x8(%rsp),%eax
  401db5:	69 c0 84 f4 00 00    	imul   $0xf484,%eax,%eax
  401dbb:	89 44 24 08          	mov    %eax,0x8(%rsp)
  401dbf:	8b 44 24 18          	mov    0x18(%rsp),%eax
  401dc3:	69 c0 c1 1e 00 00    	imul   $0x1ec1,%eax,%eax
  401dc9:	89 44 24 18          	mov    %eax,0x18(%rsp)
  401dcd:	8b 44 24 10          	mov    0x10(%rsp),%eax
  401dd1:	69 c0 6a d8 00 00    	imul   $0xd86a,%eax,%eax
  401dd7:	89 44 24 10          	mov    %eax,0x10(%rsp)
  401ddb:	8b 44 24 08          	mov    0x8(%rsp),%eax
  401ddf:	69 c0 fe 55 00 00    	imul   $0x55fe,%eax,%eax
  401de5:	89 44 24 08          	mov    %eax,0x8(%rsp)
  401de9:	8b 44 24 20          	mov    0x20(%rsp),%eax
  401ded:	69 c0 ea 9f 00 00    	imul   $0x9fea,%eax,%eax
  401df3:	89 44 24 20          	mov    %eax,0x20(%rsp)
  401df7:	8b 44 24 1c          	mov    0x1c(%rsp),%eax
  401dfb:	69 c0 de a8 00 00    	imul   $0xa8de,%eax,%eax
  401e01:	89 44 24 1c          	mov    %eax,0x1c(%rsp)
  401e05:	8b 44 24 1c          	mov    0x1c(%rsp),%eax
  401e09:	69 c0 4d 88 00 00    	imul   $0x884d,%eax,%eax
  401e0f:	89 44 24 1c          	mov    %eax,0x1c(%rsp)
  401e13:	8b 44 24 14          	mov    0x14(%rsp),%eax
  401e17:	69 c0 fc 56 00 00    	imul   $0x56fc,%eax,%eax
  401e1d:	89 44 24 14          	mov    %eax,0x14(%rsp)
  401e21:	8b 44 24 04          	mov    0x4(%rsp),%eax
  401e25:	69 c0 ae 95 00 00    	imul   $0x95ae,%eax,%eax
  401e2b:	89 44 24 04          	mov    %eax,0x4(%rsp)
  401e2f:	8b 44 24 0c          	mov    0xc(%rsp),%eax
  401e33:	69 c0 d4 a1 00 00    	imul   $0xa1d4,%eax,%eax
  401e39:	89 44 24 0c          	mov    %eax,0xc(%rsp)
  401e3d:	8b 44 24 24          	mov    0x24(%rsp),%eax
  401e41:	69 c0 b2 68 00 00    	imul   $0x68b2,%eax,%eax
  401e47:	89 44 24 24          	mov    %eax,0x24(%rsp)
  401e4b:	8b 44 24 24          	mov    0x24(%rsp),%eax
  401e4f:	69 c0 78 6f 00 00    	imul   $0x6f78,%eax,%eax
  401e55:	89 44 24 24          	mov    %eax,0x24(%rsp)
  401e59:	8b 44 24 14          	mov    0x14(%rsp),%eax
  401e5d:	69 c0 0a 56 00 00    	imul   $0x560a,%eax,%eax
  401e63:	89 44 24 14          	mov    %eax,0x14(%rsp)
  401e67:	b8 00 00 00 00       	mov    $0x0,%eax
  401e6c:	ba 00 00 00 00       	mov    $0x0,%edx
  401e71:	83 f8 09             	cmp    $0x9,%eax
  401e74:	77 0c                	ja     401e82 <scramble+0x47e>
  401e76:	89 c1                	mov    %eax,%ecx
  401e78:	8b 0c 8c             	mov    (%rsp,%rcx,4),%ecx
  401e7b:	01 ca                	add    %ecx,%edx
  401e7d:	83 c0 01             	add    $0x1,%eax
  401e80:	eb ef                	jmp    401e71 <scramble+0x46d>
  401e82:	48 8b 44 24 28       	mov    0x28(%rsp),%rax
  401e87:	64 48 33 04 25 28 00 	xor    %fs:0x28,%rax
  401e8e:	00 00 
  401e90:	75 07                	jne    401e99 <scramble+0x495>
  401e92:	89 d0                	mov    %edx,%eax
  401e94:	48 83 c4 38          	add    $0x38,%rsp
  401e98:	c3                   	retq   
  401e99:	e8 53 0a 00 00       	callq  4028f1 <__stack_chk_fail>

0000000000401e9e <getbuf>:
  401e9e:	f3 0f 1e fa          	endbr64 
  401ea2:	48 83 ec 18          	sub    $0x18,%rsp
  401ea6:	48 89 e7             	mov    %rsp,%rdi
  401ea9:	e8 5f 05 00 00       	callq  40240d <Gets>
  401eae:	b8 01 00 00 00       	mov    $0x1,%eax
  401eb3:	48 83 c4 18          	add    $0x18,%rsp
  401eb7:	c3                   	retq   

0000000000401eb8 <touch1>:
  401eb8:	f3 0f 1e fa          	endbr64 
  401ebc:	50                   	push   %rax
  401ebd:	58                   	pop    %rax
  401ebe:	48 83 ec 08          	sub    $0x8,%rsp
  401ec2:	c7 05 50 56 00 00 01 	movl   $0x1,0x5650(%rip)        # 40751c <vlevel>
  401ec9:	00 00 00 
  401ecc:	48 8d 3d 43 24 00 00 	lea    0x2443(%rip),%rdi        # 404316 <_IO_stdin_used+0x316>
  401ed3:	e8 d8 f3 ff ff       	callq  4012b0 <puts@plt>
  401ed8:	bf 01 00 00 00       	mov    $0x1,%edi
  401edd:	e8 9d 07 00 00       	callq  40267f <validate>
  401ee2:	bf 00 00 00 00       	mov    $0x0,%edi
  401ee7:	e8 24 f5 ff ff       	callq  401410 <exit@plt>

0000000000401eec <touch2>:
  401eec:	f3 0f 1e fa          	endbr64 
  401ef0:	50                   	push   %rax
  401ef1:	58                   	pop    %rax
  401ef2:	48 83 ec 08          	sub    $0x8,%rsp
  401ef6:	89 fa                	mov    %edi,%edx
  401ef8:	c7 05 1a 56 00 00 02 	movl   $0x2,0x561a(%rip)        # 40751c <vlevel>
  401eff:	00 00 00 
  401f02:	39 3d 1c 56 00 00    	cmp    %edi,0x561c(%rip)        # 407524 <cookie>
  401f08:	74 2a                	je     401f34 <touch2+0x48>
  401f0a:	48 8d 35 4f 24 00 00 	lea    0x244f(%rip),%rsi        # 404360 <_IO_stdin_used+0x360>
  401f11:	bf 01 00 00 00       	mov    $0x1,%edi
  401f16:	b8 00 00 00 00       	mov    $0x0,%eax
  401f1b:	e8 a0 f4 ff ff       	callq  4013c0 <__printf_chk@plt>
  401f20:	bf 02 00 00 00       	mov    $0x2,%edi
  401f25:	e8 30 08 00 00       	callq  40275a <fail>
  401f2a:	bf 00 00 00 00       	mov    $0x0,%edi
  401f2f:	e8 dc f4 ff ff       	callq  401410 <exit@plt>
  401f34:	48 8d 35 fd 23 00 00 	lea    0x23fd(%rip),%rsi        # 404338 <_IO_stdin_used+0x338>
  401f3b:	bf 01 00 00 00       	mov    $0x1,%edi
  401f40:	b8 00 00 00 00       	mov    $0x0,%eax
  401f45:	e8 76 f4 ff ff       	callq  4013c0 <__printf_chk@plt>
  401f4a:	bf 02 00 00 00       	mov    $0x2,%edi
  401f4f:	e8 2b 07 00 00       	callq  40267f <validate>
  401f54:	eb d4                	jmp    401f2a <touch2+0x3e>

0000000000401f56 <hexmatch>:
  401f56:	f3 0f 1e fa          	endbr64 
  401f5a:	41 55                	push   %r13
  401f5c:	41 54                	push   %r12
  401f5e:	55                   	push   %rbp
  401f5f:	53                   	push   %rbx
  401f60:	48 81 ec 88 00 00 00 	sub    $0x88,%rsp
  401f67:	89 fd                	mov    %edi,%ebp
  401f69:	48 89 f3             	mov    %rsi,%rbx
  401f6c:	41 bc 28 00 00 00    	mov    $0x28,%r12d
  401f72:	64 49 8b 04 24       	mov    %fs:(%r12),%rax
  401f77:	48 89 44 24 78       	mov    %rax,0x78(%rsp)
  401f7c:	31 c0                	xor    %eax,%eax
  401f7e:	e8 0d f4 ff ff       	callq  401390 <random@plt>
  401f83:	48 89 c1             	mov    %rax,%rcx
  401f86:	48 ba 0b d7 a3 70 3d 	movabs $0xa3d70a3d70a3d70b,%rdx
  401f8d:	0a d7 a3 
  401f90:	48 f7 ea             	imul   %rdx
  401f93:	48 01 ca             	add    %rcx,%rdx
  401f96:	48 c1 fa 06          	sar    $0x6,%rdx
  401f9a:	48 89 c8             	mov    %rcx,%rax
  401f9d:	48 c1 f8 3f          	sar    $0x3f,%rax
  401fa1:	48 29 c2             	sub    %rax,%rdx
  401fa4:	48 8d 04 92          	lea    (%rdx,%rdx,4),%rax
  401fa8:	48 8d 04 80          	lea    (%rax,%rax,4),%rax
  401fac:	48 c1 e0 02          	shl    $0x2,%rax
  401fb0:	48 29 c1             	sub    %rax,%rcx
  401fb3:	4c 8d 2c 0c          	lea    (%rsp,%rcx,1),%r13
  401fb7:	41 89 e8             	mov    %ebp,%r8d
  401fba:	48 8d 0d 72 23 00 00 	lea    0x2372(%rip),%rcx        # 404333 <_IO_stdin_used+0x333>
  401fc1:	48 c7 c2 ff ff ff ff 	mov    $0xffffffffffffffff,%rdx
  401fc8:	be 01 00 00 00       	mov    $0x1,%esi
  401fcd:	4c 89 ef             	mov    %r13,%rdi
  401fd0:	b8 00 00 00 00       	mov    $0x0,%eax
  401fd5:	e8 76 f4 ff ff       	callq  401450 <__sprintf_chk@plt>
  401fda:	ba 09 00 00 00       	mov    $0x9,%edx
  401fdf:	4c 89 ee             	mov    %r13,%rsi
  401fe2:	48 89 df             	mov    %rbx,%rdi
  401fe5:	e8 a6 f2 ff ff       	callq  401290 <strncmp@plt>
  401fea:	85 c0                	test   %eax,%eax
  401fec:	0f 94 c0             	sete   %al
  401fef:	48 8b 5c 24 78       	mov    0x78(%rsp),%rbx
  401ff4:	64 49 33 1c 24       	xor    %fs:(%r12),%rbx
  401ff9:	75 11                	jne    40200c <hexmatch+0xb6>
  401ffb:	0f b6 c0             	movzbl %al,%eax
  401ffe:	48 81 c4 88 00 00 00 	add    $0x88,%rsp
  402005:	5b                   	pop    %rbx
  402006:	5d                   	pop    %rbp
  402007:	41 5c                	pop    %r12
  402009:	41 5d                	pop    %r13
  40200b:	c3                   	retq   
  40200c:	e8 e0 08 00 00       	callq  4028f1 <__stack_chk_fail>

0000000000402011 <touch3>:
  402011:	f3 0f 1e fa          	endbr64 
  402015:	53                   	push   %rbx
  402016:	48 89 fb             	mov    %rdi,%rbx
  402019:	c7 05 f9 54 00 00 03 	movl   $0x3,0x54f9(%rip)        # 40751c <vlevel>
  402020:	00 00 00 
  402023:	48 89 fe             	mov    %rdi,%rsi
  402026:	8b 3d f8 54 00 00    	mov    0x54f8(%rip),%edi        # 407524 <cookie>
  40202c:	e8 25 ff ff ff       	callq  401f56 <hexmatch>
  402031:	85 c0                	test   %eax,%eax
  402033:	74 2d                	je     402062 <touch3+0x51>
  402035:	48 89 da             	mov    %rbx,%rdx
  402038:	48 8d 35 49 23 00 00 	lea    0x2349(%rip),%rsi        # 404388 <_IO_stdin_used+0x388>
  40203f:	bf 01 00 00 00       	mov    $0x1,%edi
  402044:	b8 00 00 00 00       	mov    $0x0,%eax
  402049:	e8 72 f3 ff ff       	callq  4013c0 <__printf_chk@plt>
  40204e:	bf 03 00 00 00       	mov    $0x3,%edi
  402053:	e8 27 06 00 00       	callq  40267f <validate>
  402058:	bf 00 00 00 00       	mov    $0x0,%edi
  40205d:	e8 ae f3 ff ff       	callq  401410 <exit@plt>
  402062:	48 89 da             	mov    %rbx,%rdx
  402065:	48 8d 35 44 23 00 00 	lea    0x2344(%rip),%rsi        # 4043b0 <_IO_stdin_used+0x3b0>
  40206c:	bf 01 00 00 00       	mov    $0x1,%edi
  402071:	b8 00 00 00 00       	mov    $0x0,%eax
  402076:	e8 45 f3 ff ff       	callq  4013c0 <__printf_chk@plt>
  40207b:	bf 03 00 00 00       	mov    $0x3,%edi
  402080:	e8 d5 06 00 00       	callq  40275a <fail>
  402085:	eb d1                	jmp    402058 <touch3+0x47>

0000000000402087 <test>:
  402087:	f3 0f 1e fa          	endbr64 
  40208b:	48 83 ec 08          	sub    $0x8,%rsp
  40208f:	b8 00 00 00 00       	mov    $0x0,%eax
  402094:	e8 05 fe ff ff       	callq  401e9e <getbuf>
  402099:	89 c2                	mov    %eax,%edx
  40209b:	48 8d 35 36 23 00 00 	lea    0x2336(%rip),%rsi        # 4043d8 <_IO_stdin_used+0x3d8>
  4020a2:	bf 01 00 00 00       	mov    $0x1,%edi
  4020a7:	b8 00 00 00 00       	mov    $0x0,%eax
  4020ac:	e8 0f f3 ff ff       	callq  4013c0 <__printf_chk@plt>
  4020b1:	48 83 c4 08          	add    $0x8,%rsp
  4020b5:	c3                   	retq   

00000000004020b6 <test2>:
  4020b6:	f3 0f 1e fa          	endbr64 
  4020ba:	48 83 ec 08          	sub    $0x8,%rsp
  4020be:	b8 00 00 00 00       	mov    $0x0,%eax
  4020c3:	e8 1d 00 00 00       	callq  4020e5 <getbuf_withcanary>
  4020c8:	89 c2                	mov    %eax,%edx
  4020ca:	48 8d 35 2f 23 00 00 	lea    0x232f(%rip),%rsi        # 404400 <_IO_stdin_used+0x400>
  4020d1:	bf 01 00 00 00       	mov    $0x1,%edi
  4020d6:	b8 00 00 00 00       	mov    $0x0,%eax
  4020db:	e8 e0 f2 ff ff       	callq  4013c0 <__printf_chk@plt>
  4020e0:	48 83 c4 08          	add    $0x8,%rsp
  4020e4:	c3                   	retq   

00000000004020e5 <getbuf_withcanary>:
  4020e5:	f3 0f 1e fa          	endbr64 
  4020e9:	55                   	push   %rbp
  4020ea:	48 89 e5             	mov    %rsp,%rbp
  4020ed:	48 81 ec 90 01 00 00 	sub    $0x190,%rsp
  4020f4:	64 48 8b 04 25 28 00 	mov    %fs:0x28,%rax
  4020fb:	00 00 
  4020fd:	48 89 45 f8          	mov    %rax,-0x8(%rbp)
  402101:	31 c0                	xor    %eax,%eax
  402103:	c7 85 74 ff ff ff 00 	movl   $0x0,-0x8c(%rbp)
  40210a:	00 00 00 
  40210d:	8b 85 74 ff ff ff    	mov    -0x8c(%rbp),%eax
  402113:	89 85 70 ff ff ff    	mov    %eax,-0x90(%rbp)
  402119:	48 8d 85 70 fe ff ff 	lea    -0x190(%rbp),%rax
  402120:	48 89 c7             	mov    %rax,%rdi
  402123:	e8 e5 02 00 00       	callq  40240d <Gets>
  402128:	8b 85 70 ff ff ff    	mov    -0x90(%rbp),%eax
  40212e:	48 63 d0             	movslq %eax,%rdx
  402131:	48 8d 85 70 fe ff ff 	lea    -0x190(%rbp),%rax
  402138:	48 8d 88 08 01 00 00 	lea    0x108(%rax),%rcx
  40213f:	48 8d 85 70 fe ff ff 	lea    -0x190(%rbp),%rax
  402146:	48 89 ce             	mov    %rcx,%rsi
  402149:	48 89 c7             	mov    %rax,%rdi
  40214c:	e8 1f f2 ff ff       	callq  401370 <memcpy@plt>
  402151:	8b 85 74 ff ff ff    	mov    -0x8c(%rbp),%eax
  402157:	48 63 d0             	movslq %eax,%rdx
  40215a:	48 8d 85 70 fe ff ff 	lea    -0x190(%rbp),%rax
  402161:	48 8d 8d 70 fe ff ff 	lea    -0x190(%rbp),%rcx
  402168:	48 81 c1 08 01 00 00 	add    $0x108,%rcx
  40216f:	48 89 c6             	mov    %rax,%rsi
  402172:	48 89 cf             	mov    %rcx,%rdi
  402175:	e8 f6 f1 ff ff       	callq  401370 <memcpy@plt>
  40217a:	b8 01 00 00 00       	mov    $0x1,%eax
  40217f:	48 8b 55 f8          	mov    -0x8(%rbp),%rdx
  402183:	64 48 2b 14 25 28 00 	sub    %fs:0x28,%rdx
  40218a:	00 00 
  40218c:	74 05                	je     402193 <getbuf_withcanary+0xae>
  40218e:	e8 5e 07 00 00       	callq  4028f1 <__stack_chk_fail>
  402193:	c9                   	leaveq 
  402194:	c3                   	retq   

0000000000402195 <start_farm>:
  402195:	f3 0f 1e fa          	endbr64 
  402199:	b8 01 00 00 00       	mov    $0x1,%eax
  40219e:	c3                   	retq   

000000000040219f <setval_146>:
  40219f:	f3 0f 1e fa          	endbr64 
  4021a3:	c7 07 ba 48 89 c7    	movl   $0xc78948ba,(%rdi)
  4021a9:	c3                   	retq   

00000000004021aa <addval_228>:
  4021aa:	f3 0f 1e fa          	endbr64 
  4021ae:	8d 87 58 90 91 c3    	lea    -0x3c6e6fa8(%rdi),%eax
  4021b4:	c3                   	retq   

00000000004021b5 <setval_421>:
  4021b5:	f3 0f 1e fa          	endbr64 
  4021b9:	c7 07 48 89 c7 c7    	movl   $0xc7c78948,(%rdi)
  4021bf:	c3                   	retq   

00000000004021c0 <addval_365>:
  4021c0:	f3 0f 1e fa          	endbr64 
  4021c4:	8d 87 bc 37 58 c3    	lea    -0x3ca7c844(%rdi),%eax
  4021ca:	c3                   	retq   

00000000004021cb <getval_303>:
  4021cb:	f3 0f 1e fa          	endbr64 
  4021cf:	b8 bf 5c fc 18       	mov    $0x18fc5cbf,%eax
  4021d4:	c3                   	retq   

00000000004021d5 <getval_256>:
  4021d5:	f3 0f 1e fa          	endbr64 
  4021d9:	b8 69 d1 58 c3       	mov    $0xc358d169,%eax
  4021de:	c3                   	retq   

00000000004021df <getval_345>:
  4021df:	f3 0f 1e fa          	endbr64 
  4021e3:	b8 48 89 c7 c3       	mov    $0xc3c78948,%eax
  4021e8:	c3                   	retq   

00000000004021e9 <getval_300>:
  4021e9:	f3 0f 1e fa          	endbr64 
  4021ed:	b8 48 89 c7 c7       	mov    $0xc7c78948,%eax
  4021f2:	c3                   	retq   

00000000004021f3 <mid_farm>:
  4021f3:	f3 0f 1e fa          	endbr64 
  4021f7:	b8 01 00 00 00       	mov    $0x1,%eax
  4021fc:	c3                   	retq   

00000000004021fd <add_xy>:
  4021fd:	f3 0f 1e fa          	endbr64 
  402201:	48 8d 04 37          	lea    (%rdi,%rsi,1),%rax
  402205:	c3                   	retq   

0000000000402206 <getval_279>:
  402206:	f3 0f 1e fa          	endbr64 
  40220a:	b8 c9 c2 38 db       	mov    $0xdb38c2c9,%eax
  40220f:	c3                   	retq   

0000000000402210 <getval_450>:
  402210:	f3 0f 1e fa          	endbr64 
  402214:	b8 26 48 89 e0       	mov    $0xe0894826,%eax
  402219:	c3                   	retq   

000000000040221a <setval_278>:
  40221a:	f3 0f 1e fa          	endbr64 
  40221e:	c7 07 89 ce 08 c9    	movl   $0xc908ce89,(%rdi)
  402224:	c3                   	retq   

0000000000402225 <setval_169>:
  402225:	f3 0f 1e fa          	endbr64 
  402229:	c7 07 40 89 e0 90    	movl   $0x90e08940,(%rdi)
  40222f:	c3                   	retq   

0000000000402230 <addval_420>:
  402230:	f3 0f 1e fa          	endbr64 
  402234:	8d 87 89 ce c4 db    	lea    -0x243b3177(%rdi),%eax
  40223a:	c3                   	retq   

000000000040223b <getval_262>:
  40223b:	f3 0f 1e fa          	endbr64 
  40223f:	b8 c9 ce 38 c9       	mov    $0xc938cec9,%eax
  402244:	c3                   	retq   

0000000000402245 <getval_486>:
  402245:	f3 0f 1e fa          	endbr64 
  402249:	b8 88 c2 90 90       	mov    $0x9090c288,%eax
  40224e:	c3                   	retq   

000000000040224f <getval_405>:
  40224f:	f3 0f 1e fa          	endbr64 
  402253:	b8 81 ce 20 d2       	mov    $0xd220ce81,%eax
  402258:	c3                   	retq   

0000000000402259 <addval_106>:
  402259:	f3 0f 1e fa          	endbr64 
  40225d:	8d 87 71 89 ce 90    	lea    -0x6f31768f(%rdi),%eax
  402263:	c3                   	retq   

0000000000402264 <addval_461>:
  402264:	f3 0f 1e fa          	endbr64 
  402268:	8d 87 48 89 e0 94    	lea    -0x6b1f76b8(%rdi),%eax
  40226e:	c3                   	retq   

000000000040226f <getval_145>:
  40226f:	f3 0f 1e fa          	endbr64 
  402273:	b8 d9 4b 8b ce       	mov    $0xce8b4bd9,%eax
  402278:	c3                   	retq   

0000000000402279 <getval_306>:
  402279:	f3 0f 1e fa          	endbr64 
  40227d:	b8 48 88 e0 c3       	mov    $0xc3e08848,%eax
  402282:	c3                   	retq   

0000000000402283 <addval_111>:
  402283:	f3 0f 1e fa          	endbr64 
  402287:	8d 87 81 ce 08 d2    	lea    -0x2df7317f(%rdi),%eax
  40228d:	c3                   	retq   

000000000040228e <addval_468>:
  40228e:	f3 0f 1e fa          	endbr64 
  402292:	8d 87 ff 48 89 e0    	lea    -0x1f76b701(%rdi),%eax
  402298:	c3                   	retq   

0000000000402299 <getval_248>:
  402299:	f3 0f 1e fa          	endbr64 
  40229d:	b8 89 d1 a4 c9       	mov    $0xc9a4d189,%eax
  4022a2:	c3                   	retq   

00000000004022a3 <setval_469>:
  4022a3:	f3 0f 1e fa          	endbr64 
  4022a7:	c7 07 89 d1 48 c0    	movl   $0xc048d189,(%rdi)
  4022ad:	c3                   	retq   

00000000004022ae <addval_282>:
  4022ae:	f3 0f 1e fa          	endbr64 
  4022b2:	8d 87 88 ce 38 c9    	lea    -0x36c73178(%rdi),%eax
  4022b8:	c3                   	retq   

00000000004022b9 <getval_449>:
  4022b9:	f3 0f 1e fa          	endbr64 
  4022bd:	b8 89 c2 60 c9       	mov    $0xc960c289,%eax
  4022c2:	c3                   	retq   

00000000004022c3 <setval_316>:
  4022c3:	f3 0f 1e fa          	endbr64 
  4022c7:	c7 07 48 a9 e0 c3    	movl   $0xc3e0a948,(%rdi)
  4022cd:	c3                   	retq   

00000000004022ce <getval_118>:
  4022ce:	f3 0f 1e fa          	endbr64 
  4022d2:	b8 c9 d1 90 c3       	mov    $0xc390d1c9,%eax
  4022d7:	c3                   	retq   

00000000004022d8 <setval_234>:
  4022d8:	f3 0f 1e fa          	endbr64 
  4022dc:	c7 07 89 d1 90 90    	movl   $0x9090d189,(%rdi)
  4022e2:	c3                   	retq   

00000000004022e3 <getval_240>:
  4022e3:	f3 0f 1e fa          	endbr64 
  4022e7:	b8 43 88 c2 90       	mov    $0x90c28843,%eax
  4022ec:	c3                   	retq   

00000000004022ed <addval_497>:
  4022ed:	f3 0f 1e fa          	endbr64 
  4022f1:	8d 87 48 89 e0 c7    	lea    -0x381f76b8(%rdi),%eax
  4022f7:	c3                   	retq   

00000000004022f8 <getval_261>:
  4022f8:	f3 0f 1e fa          	endbr64 
  4022fc:	b8 89 d1 30 db       	mov    $0xdb30d189,%eax
  402301:	c3                   	retq   

0000000000402302 <getval_390>:
  402302:	f3 0f 1e fa          	endbr64 
  402306:	b8 48 09 e0 c3       	mov    $0xc3e00948,%eax
  40230b:	c3                   	retq   

000000000040230c <getval_196>:
  40230c:	f3 0f 1e fa          	endbr64 
  402310:	b8 2e 89 d1 90       	mov    $0x90d1892e,%eax
  402315:	c3                   	retq   

0000000000402316 <getval_211>:
  402316:	f3 0f 1e fa          	endbr64 
  40231a:	b8 89 d1 18 c0       	mov    $0xc018d189,%eax
  40231f:	c3                   	retq   

0000000000402320 <addval_455>:
  402320:	f3 0f 1e fa          	endbr64 
  402324:	8d 87 89 c2 28 c9    	lea    -0x36d73d77(%rdi),%eax
  40232a:	c3                   	retq   

000000000040232b <getval_317>:
  40232b:	f3 0f 1e fa          	endbr64 
  40232f:	b8 a9 d1 38 db       	mov    $0xdb38d1a9,%eax
  402334:	c3                   	retq   

0000000000402335 <addval_322>:
  402335:	f3 0f 1e fa          	endbr64 
  402339:	8d 87 89 c2 18 db    	lea    -0x24e73d77(%rdi),%eax
  40233f:	c3                   	retq   

0000000000402340 <setval_470>:
  402340:	f3 0f 1e fa          	endbr64 
  402344:	c7 07 89 c2 08 db    	movl   $0xdb08c289,(%rdi)
  40234a:	c3                   	retq   

000000000040234b <setval_437>:
  40234b:	f3 0f 1e fa          	endbr64 
  40234f:	c7 07 89 c2 38 c0    	movl   $0xc038c289,(%rdi)
  402355:	c3                   	retq   

0000000000402356 <end_farm>:
  402356:	f3 0f 1e fa          	endbr64 
  40235a:	b8 01 00 00 00       	mov    $0x1,%eax
  40235f:	c3                   	retq   

0000000000402360 <save_char>:
  402360:	8b 05 de 5d 00 00    	mov    0x5dde(%rip),%eax        # 408144 <gets_cnt>
  402366:	3d ff 03 00 00       	cmp    $0x3ff,%eax
  40236b:	7f 4a                	jg     4023b7 <save_char+0x57>
  40236d:	89 f9                	mov    %edi,%ecx
  40236f:	c0 e9 04             	shr    $0x4,%cl
  402372:	8d 14 40             	lea    (%rax,%rax,2),%edx
  402375:	4c 8d 05 f4 23 00 00 	lea    0x23f4(%rip),%r8        # 404770 <trans_char>
  40237c:	83 e1 0f             	and    $0xf,%ecx
  40237f:	45 0f b6 0c 08       	movzbl (%r8,%rcx,1),%r9d
  402384:	48 8d 0d b5 51 00 00 	lea    0x51b5(%rip),%rcx        # 407540 <gets_buf>
  40238b:	48 63 f2             	movslq %edx,%rsi
  40238e:	44 88 0c 31          	mov    %r9b,(%rcx,%rsi,1)
  402392:	8d 72 01             	lea    0x1(%rdx),%esi
  402395:	83 e7 0f             	and    $0xf,%edi
  402398:	41 0f b6 3c 38       	movzbl (%r8,%rdi,1),%edi
  40239d:	48 63 f6             	movslq %esi,%rsi
  4023a0:	40 88 3c 31          	mov    %dil,(%rcx,%rsi,1)
  4023a4:	83 c2 02             	add    $0x2,%edx
  4023a7:	48 63 d2             	movslq %edx,%rdx
  4023aa:	c6 04 11 20          	movb   $0x20,(%rcx,%rdx,1)
  4023ae:	83 c0 01             	add    $0x1,%eax
  4023b1:	89 05 8d 5d 00 00    	mov    %eax,0x5d8d(%rip)        # 408144 <gets_cnt>
  4023b7:	c3                   	retq   

00000000004023b8 <save_term>:
  4023b8:	8b 05 86 5d 00 00    	mov    0x5d86(%rip),%eax        # 408144 <gets_cnt>
  4023be:	8d 04 40             	lea    (%rax,%rax,2),%eax
  4023c1:	48 98                	cltq   
  4023c3:	48 8d 15 76 51 00 00 	lea    0x5176(%rip),%rdx        # 407540 <gets_buf>
  4023ca:	c6 04 02 00          	movb   $0x0,(%rdx,%rax,1)
  4023ce:	c3                   	retq   

00000000004023cf <check_fail>:
  4023cf:	f3 0f 1e fa          	endbr64 
  4023d3:	50                   	push   %rax
  4023d4:	58                   	pop    %rax
  4023d5:	48 83 ec 08          	sub    $0x8,%rsp
  4023d9:	0f be 15 68 5d 00 00 	movsbl 0x5d68(%rip),%edx        # 408148 <target_prefix>
  4023e0:	4c 8d 05 59 51 00 00 	lea    0x5159(%rip),%r8        # 407540 <gets_buf>
  4023e7:	8b 0d 2b 51 00 00    	mov    0x512b(%rip),%ecx        # 407518 <check_level>
  4023ed:	48 8d 35 3a 20 00 00 	lea    0x203a(%rip),%rsi        # 40442e <_IO_stdin_used+0x42e>
  4023f4:	bf 01 00 00 00       	mov    $0x1,%edi
  4023f9:	b8 00 00 00 00       	mov    $0x0,%eax
  4023fe:	e8 bd ef ff ff       	callq  4013c0 <__printf_chk@plt>
  402403:	bf 01 00 00 00       	mov    $0x1,%edi
  402408:	e8 03 f0 ff ff       	callq  401410 <exit@plt>

000000000040240d <Gets>:
  40240d:	f3 0f 1e fa          	endbr64 
  402411:	41 54                	push   %r12
  402413:	55                   	push   %rbp
  402414:	53                   	push   %rbx
  402415:	49 89 fc             	mov    %rdi,%r12
  402418:	c7 05 22 5d 00 00 00 	movl   $0x0,0x5d22(%rip)        # 408144 <gets_cnt>
  40241f:	00 00 00 
  402422:	48 89 fb             	mov    %rdi,%rbx
  402425:	48 8b 3d e4 50 00 00 	mov    0x50e4(%rip),%rdi        # 407510 <infile>
  40242c:	e8 0f f0 ff ff       	callq  401440 <getc@plt>
  402431:	83 f8 ff             	cmp    $0xffffffff,%eax
  402434:	74 18                	je     40244e <Gets+0x41>
  402436:	83 f8 0a             	cmp    $0xa,%eax
  402439:	74 13                	je     40244e <Gets+0x41>
  40243b:	48 8d 6b 01          	lea    0x1(%rbx),%rbp
  40243f:	88 03                	mov    %al,(%rbx)
  402441:	0f b6 f8             	movzbl %al,%edi
  402444:	e8 17 ff ff ff       	callq  402360 <save_char>
  402449:	48 89 eb             	mov    %rbp,%rbx
  40244c:	eb d7                	jmp    402425 <Gets+0x18>
  40244e:	c6 03 00             	movb   $0x0,(%rbx)
  402451:	b8 00 00 00 00       	mov    $0x0,%eax
  402456:	e8 5d ff ff ff       	callq  4023b8 <save_term>
  40245b:	4c 89 e0             	mov    %r12,%rax
  40245e:	5b                   	pop    %rbx
  40245f:	5d                   	pop    %rbp
  402460:	41 5c                	pop    %r12
  402462:	c3                   	retq   

0000000000402463 <notify_server>:
  402463:	f3 0f 1e fa          	endbr64 
  402467:	55                   	push   %rbp
  402468:	53                   	push   %rbx
  402469:	4c 8d 9c 24 00 c0 ff 	lea    -0x4000(%rsp),%r11
  402470:	ff 
  402471:	48 81 ec 00 10 00 00 	sub    $0x1000,%rsp
  402478:	48 83 0c 24 00       	orq    $0x0,(%rsp)
  40247d:	4c 39 dc             	cmp    %r11,%rsp
  402480:	75 ef                	jne    402471 <notify_server+0xe>
  402482:	48 83 ec 18          	sub    $0x18,%rsp
  402486:	64 48 8b 04 25 28 00 	mov    %fs:0x28,%rax
  40248d:	00 00 
  40248f:	48 89 84 24 08 40 00 	mov    %rax,0x4008(%rsp)
  402496:	00 
  402497:	31 c0                	xor    %eax,%eax
  402499:	83 3d 88 50 00 00 00 	cmpl   $0x0,0x5088(%rip)        # 407528 <is_checker>
  4024a0:	0f 85 b7 01 00 00    	jne    40265d <notify_server+0x1fa>
  4024a6:	89 fb                	mov    %edi,%ebx
  4024a8:	81 3d 92 5c 00 00 9c 	cmpl   $0x1f9c,0x5c92(%rip)        # 408144 <gets_cnt>
  4024af:	1f 00 00 
  4024b2:	7f 18                	jg     4024cc <notify_server+0x69>
  4024b4:	0f be 05 8d 5c 00 00 	movsbl 0x5c8d(%rip),%eax        # 408148 <target_prefix>
  4024bb:	83 3d de 4f 00 00 00 	cmpl   $0x0,0x4fde(%rip)        # 4074a0 <notify>
  4024c2:	74 23                	je     4024e7 <notify_server+0x84>
  4024c4:	8b 15 56 50 00 00    	mov    0x5056(%rip),%edx        # 407520 <authkey>
  4024ca:	eb 20                	jmp    4024ec <notify_server+0x89>
  4024cc:	48 8d 35 85 20 00 00 	lea    0x2085(%rip),%rsi        # 404558 <_IO_stdin_used+0x558>
  4024d3:	bf 01 00 00 00       	mov    $0x1,%edi
  4024d8:	e8 e3 ee ff ff       	callq  4013c0 <__printf_chk@plt>
  4024dd:	bf 01 00 00 00       	mov    $0x1,%edi
  4024e2:	e8 29 ef ff ff       	callq  401410 <exit@plt>
  4024e7:	ba ff ff ff ff       	mov    $0xffffffff,%edx
  4024ec:	85 db                	test   %ebx,%ebx
  4024ee:	0f 84 9b 00 00 00    	je     40258f <notify_server+0x12c>
  4024f4:	48 8d 2d 4e 1f 00 00 	lea    0x1f4e(%rip),%rbp        # 404449 <_IO_stdin_used+0x449>
  4024fb:	48 89 e7             	mov    %rsp,%rdi
  4024fe:	48 8d 0d 3b 50 00 00 	lea    0x503b(%rip),%rcx        # 407540 <gets_buf>
  402505:	51                   	push   %rcx
  402506:	56                   	push   %rsi
  402507:	50                   	push   %rax
  402508:	52                   	push   %rdx
  402509:	49 89 e9             	mov    %rbp,%r9
  40250c:	44 8b 05 3d 4c 00 00 	mov    0x4c3d(%rip),%r8d        # 407150 <target_id>
  402513:	48 8d 0d 34 1f 00 00 	lea    0x1f34(%rip),%rcx        # 40444e <_IO_stdin_used+0x44e>
  40251a:	ba 00 20 00 00       	mov    $0x2000,%edx
  40251f:	be 01 00 00 00       	mov    $0x1,%esi
  402524:	b8 00 00 00 00       	mov    $0x0,%eax
  402529:	e8 22 ef ff ff       	callq  401450 <__sprintf_chk@plt>
  40252e:	48 83 c4 20          	add    $0x20,%rsp
  402532:	83 3d 67 4f 00 00 00 	cmpl   $0x0,0x4f67(%rip)        # 4074a0 <notify>
  402539:	0f 84 95 00 00 00    	je     4025d4 <notify_server+0x171>
  40253f:	48 89 e1             	mov    %rsp,%rcx
  402542:	4c 8d 8c 24 00 20 00 	lea    0x2000(%rsp),%r9
  402549:	00 
  40254a:	41 b8 00 00 00 00    	mov    $0x0,%r8d
  402550:	48 8b 15 11 4c 00 00 	mov    0x4c11(%rip),%rdx        # 407168 <lab>
  402557:	48 8b 35 12 4c 00 00 	mov    0x4c12(%rip),%rsi        # 407170 <course>
  40255e:	48 8b 3d fb 4b 00 00 	mov    0x4bfb(%rip),%rdi        # 407160 <user_id>
  402565:	e8 7f 12 00 00       	callq  4037e9 <driver_post>
  40256a:	85 c0                	test   %eax,%eax
  40256c:	78 2d                	js     40259b <notify_server+0x138>
  40256e:	85 db                	test   %ebx,%ebx
  402570:	74 51                	je     4025c3 <notify_server+0x160>
  402572:	48 8d 3d 0f 20 00 00 	lea    0x200f(%rip),%rdi        # 404588 <_IO_stdin_used+0x588>
  402579:	e8 32 ed ff ff       	callq  4012b0 <puts@plt>
  40257e:	48 8d 3d f1 1e 00 00 	lea    0x1ef1(%rip),%rdi        # 404476 <_IO_stdin_used+0x476>
  402585:	e8 26 ed ff ff       	callq  4012b0 <puts@plt>
  40258a:	e9 ce 00 00 00       	jmpq   40265d <notify_server+0x1fa>
  40258f:	48 8d 2d ae 1e 00 00 	lea    0x1eae(%rip),%rbp        # 404444 <_IO_stdin_used+0x444>
  402596:	e9 60 ff ff ff       	jmpq   4024fb <notify_server+0x98>
  40259b:	48 8d 94 24 00 20 00 	lea    0x2000(%rsp),%rdx
  4025a2:	00 
  4025a3:	48 8d 35 c0 1e 00 00 	lea    0x1ec0(%rip),%rsi        # 40446a <_IO_stdin_used+0x46a>
  4025aa:	bf 01 00 00 00       	mov    $0x1,%edi
  4025af:	b8 00 00 00 00       	mov    $0x0,%eax
  4025b4:	e8 07 ee ff ff       	callq  4013c0 <__printf_chk@plt>
  4025b9:	bf 01 00 00 00       	mov    $0x1,%edi
  4025be:	e8 4d ee ff ff       	callq  401410 <exit@plt>
  4025c3:	48 8d 3d b6 1e 00 00 	lea    0x1eb6(%rip),%rdi        # 404480 <_IO_stdin_used+0x480>
  4025ca:	e8 e1 ec ff ff       	callq  4012b0 <puts@plt>
  4025cf:	e9 89 00 00 00       	jmpq   40265d <notify_server+0x1fa>
  4025d4:	48 89 ea             	mov    %rbp,%rdx
  4025d7:	48 8d 35 e2 1f 00 00 	lea    0x1fe2(%rip),%rsi        # 4045c0 <_IO_stdin_used+0x5c0>
  4025de:	bf 01 00 00 00       	mov    $0x1,%edi
  4025e3:	b8 00 00 00 00       	mov    $0x0,%eax
  4025e8:	e8 d3 ed ff ff       	callq  4013c0 <__printf_chk@plt>
  4025ed:	48 8b 15 6c 4b 00 00 	mov    0x4b6c(%rip),%rdx        # 407160 <user_id>
  4025f4:	48 8d 35 8c 1e 00 00 	lea    0x1e8c(%rip),%rsi        # 404487 <_IO_stdin_used+0x487>
  4025fb:	bf 01 00 00 00       	mov    $0x1,%edi
  402600:	b8 00 00 00 00       	mov    $0x0,%eax
  402605:	e8 b6 ed ff ff       	callq  4013c0 <__printf_chk@plt>
  40260a:	48 8b 15 5f 4b 00 00 	mov    0x4b5f(%rip),%rdx        # 407170 <course>
  402611:	48 8d 35 7c 1e 00 00 	lea    0x1e7c(%rip),%rsi        # 404494 <_IO_stdin_used+0x494>
  402618:	bf 01 00 00 00       	mov    $0x1,%edi
  40261d:	b8 00 00 00 00       	mov    $0x0,%eax
  402622:	e8 99 ed ff ff       	callq  4013c0 <__printf_chk@plt>
  402627:	48 8b 15 3a 4b 00 00 	mov    0x4b3a(%rip),%rdx        # 407168 <lab>
  40262e:	48 8d 35 6b 1e 00 00 	lea    0x1e6b(%rip),%rsi        # 4044a0 <_IO_stdin_used+0x4a0>
  402635:	bf 01 00 00 00       	mov    $0x1,%edi
  40263a:	b8 00 00 00 00       	mov    $0x0,%eax
  40263f:	e8 7c ed ff ff       	callq  4013c0 <__printf_chk@plt>
  402644:	48 89 e2             	mov    %rsp,%rdx
  402647:	48 8d 35 5b 1e 00 00 	lea    0x1e5b(%rip),%rsi        # 4044a9 <_IO_stdin_used+0x4a9>
  40264e:	bf 01 00 00 00       	mov    $0x1,%edi
  402653:	b8 00 00 00 00       	mov    $0x0,%eax
  402658:	e8 63 ed ff ff       	callq  4013c0 <__printf_chk@plt>
  40265d:	48 8b 84 24 08 40 00 	mov    0x4008(%rsp),%rax
  402664:	00 
  402665:	64 48 33 04 25 28 00 	xor    %fs:0x28,%rax
  40266c:	00 00 
  40266e:	75 0a                	jne    40267a <notify_server+0x217>
  402670:	48 81 c4 18 40 00 00 	add    $0x4018,%rsp
  402677:	5b                   	pop    %rbx
  402678:	5d                   	pop    %rbp
  402679:	c3                   	retq   
  40267a:	e8 72 02 00 00       	callq  4028f1 <__stack_chk_fail>

000000000040267f <validate>:
  40267f:	f3 0f 1e fa          	endbr64 
  402683:	53                   	push   %rbx
  402684:	89 fb                	mov    %edi,%ebx
  402686:	83 3d 9b 4e 00 00 00 	cmpl   $0x0,0x4e9b(%rip)        # 407528 <is_checker>
  40268d:	74 79                	je     402708 <validate+0x89>
  40268f:	39 3d 87 4e 00 00    	cmp    %edi,0x4e87(%rip)        # 40751c <vlevel>
  402695:	75 39                	jne    4026d0 <validate+0x51>
  402697:	8b 15 7b 4e 00 00    	mov    0x4e7b(%rip),%edx        # 407518 <check_level>
  40269d:	39 fa                	cmp    %edi,%edx
  40269f:	75 45                	jne    4026e6 <validate+0x67>
  4026a1:	0f be 0d a0 5a 00 00 	movsbl 0x5aa0(%rip),%ecx        # 408148 <target_prefix>
  4026a8:	4c 8d 0d 91 4e 00 00 	lea    0x4e91(%rip),%r9        # 407540 <gets_buf>
  4026af:	41 89 f8             	mov    %edi,%r8d
  4026b2:	8b 15 68 4e 00 00    	mov    0x4e68(%rip),%edx        # 407520 <authkey>
  4026b8:	48 8d 35 51 1f 00 00 	lea    0x1f51(%rip),%rsi        # 404610 <_IO_stdin_used+0x610>
  4026bf:	bf 01 00 00 00       	mov    $0x1,%edi
  4026c4:	b8 00 00 00 00       	mov    $0x0,%eax
  4026c9:	e8 f2 ec ff ff       	callq  4013c0 <__printf_chk@plt>
  4026ce:	5b                   	pop    %rbx
  4026cf:	c3                   	retq   
  4026d0:	48 8d 3d de 1d 00 00 	lea    0x1dde(%rip),%rdi        # 4044b5 <_IO_stdin_used+0x4b5>
  4026d7:	e8 d4 eb ff ff       	callq  4012b0 <puts@plt>
  4026dc:	b8 00 00 00 00       	mov    $0x0,%eax
  4026e1:	e8 e9 fc ff ff       	callq  4023cf <check_fail>
  4026e6:	89 f9                	mov    %edi,%ecx
  4026e8:	48 8d 35 f9 1e 00 00 	lea    0x1ef9(%rip),%rsi        # 4045e8 <_IO_stdin_used+0x5e8>
  4026ef:	bf 01 00 00 00       	mov    $0x1,%edi
  4026f4:	b8 00 00 00 00       	mov    $0x0,%eax
  4026f9:	e8 c2 ec ff ff       	callq  4013c0 <__printf_chk@plt>
  4026fe:	b8 00 00 00 00       	mov    $0x0,%eax
  402703:	e8 c7 fc ff ff       	callq  4023cf <check_fail>
  402708:	39 3d 0e 4e 00 00    	cmp    %edi,0x4e0e(%rip)        # 40751c <vlevel>
  40270e:	74 1a                	je     40272a <validate+0xab>
  402710:	48 8d 3d 9e 1d 00 00 	lea    0x1d9e(%rip),%rdi        # 4044b5 <_IO_stdin_used+0x4b5>
  402717:	e8 94 eb ff ff       	callq  4012b0 <puts@plt>
  40271c:	89 de                	mov    %ebx,%esi
  40271e:	bf 00 00 00 00       	mov    $0x0,%edi
  402723:	e8 3b fd ff ff       	callq  402463 <notify_server>
  402728:	eb a4                	jmp    4026ce <validate+0x4f>
  40272a:	0f be 0d 17 5a 00 00 	movsbl 0x5a17(%rip),%ecx        # 408148 <target_prefix>
  402731:	89 fa                	mov    %edi,%edx
  402733:	48 8d 35 fe 1e 00 00 	lea    0x1efe(%rip),%rsi        # 404638 <_IO_stdin_used+0x638>
  40273a:	bf 01 00 00 00       	mov    $0x1,%edi
  40273f:	b8 00 00 00 00       	mov    $0x0,%eax
  402744:	e8 77 ec ff ff       	callq  4013c0 <__printf_chk@plt>
  402749:	89 de                	mov    %ebx,%esi
  40274b:	bf 01 00 00 00       	mov    $0x1,%edi
  402750:	e8 0e fd ff ff       	callq  402463 <notify_server>
  402755:	e9 74 ff ff ff       	jmpq   4026ce <validate+0x4f>

000000000040275a <fail>:
  40275a:	f3 0f 1e fa          	endbr64 
  40275e:	48 83 ec 08          	sub    $0x8,%rsp
  402762:	83 3d bf 4d 00 00 00 	cmpl   $0x0,0x4dbf(%rip)        # 407528 <is_checker>
  402769:	75 11                	jne    40277c <fail+0x22>
  40276b:	89 fe                	mov    %edi,%esi
  40276d:	bf 00 00 00 00       	mov    $0x0,%edi
  402772:	e8 ec fc ff ff       	callq  402463 <notify_server>
  402777:	48 83 c4 08          	add    $0x8,%rsp
  40277b:	c3                   	retq   
  40277c:	b8 00 00 00 00       	mov    $0x0,%eax
  402781:	e8 49 fc ff ff       	callq  4023cf <check_fail>

0000000000402786 <bushandler>:
  402786:	f3 0f 1e fa          	endbr64 
  40278a:	50                   	push   %rax
  40278b:	58                   	pop    %rax
  40278c:	48 83 ec 08          	sub    $0x8,%rsp
  402790:	83 3d 91 4d 00 00 00 	cmpl   $0x0,0x4d91(%rip)        # 407528 <is_checker>
  402797:	74 16                	je     4027af <bushandler+0x29>
  402799:	48 8d 3d 33 1d 00 00 	lea    0x1d33(%rip),%rdi        # 4044d3 <_IO_stdin_used+0x4d3>
  4027a0:	e8 0b eb ff ff       	callq  4012b0 <puts@plt>
  4027a5:	b8 00 00 00 00       	mov    $0x0,%eax
  4027aa:	e8 20 fc ff ff       	callq  4023cf <check_fail>
  4027af:	48 8d 3d ba 1e 00 00 	lea    0x1eba(%rip),%rdi        # 404670 <_IO_stdin_used+0x670>
  4027b6:	e8 f5 ea ff ff       	callq  4012b0 <puts@plt>
  4027bb:	48 8d 3d 1b 1d 00 00 	lea    0x1d1b(%rip),%rdi        # 4044dd <_IO_stdin_used+0x4dd>
  4027c2:	e8 e9 ea ff ff       	callq  4012b0 <puts@plt>
  4027c7:	be 00 00 00 00       	mov    $0x0,%esi
  4027cc:	bf 00 00 00 00       	mov    $0x0,%edi
  4027d1:	e8 8d fc ff ff       	callq  402463 <notify_server>
  4027d6:	bf 01 00 00 00       	mov    $0x1,%edi
  4027db:	e8 30 ec ff ff       	callq  401410 <exit@plt>

00000000004027e0 <seghandler>:
  4027e0:	f3 0f 1e fa          	endbr64 
  4027e4:	50                   	push   %rax
  4027e5:	58                   	pop    %rax
  4027e6:	48 83 ec 08          	sub    $0x8,%rsp
  4027ea:	83 3d 37 4d 00 00 00 	cmpl   $0x0,0x4d37(%rip)        # 407528 <is_checker>
  4027f1:	74 16                	je     402809 <seghandler+0x29>
  4027f3:	48 8d 3d f9 1c 00 00 	lea    0x1cf9(%rip),%rdi        # 4044f3 <_IO_stdin_used+0x4f3>
  4027fa:	e8 b1 ea ff ff       	callq  4012b0 <puts@plt>
  4027ff:	b8 00 00 00 00       	mov    $0x0,%eax
  402804:	e8 c6 fb ff ff       	callq  4023cf <check_fail>
  402809:	48 8d 3d 80 1e 00 00 	lea    0x1e80(%rip),%rdi        # 404690 <_IO_stdin_used+0x690>
  402810:	e8 9b ea ff ff       	callq  4012b0 <puts@plt>
  402815:	48 8d 3d c1 1c 00 00 	lea    0x1cc1(%rip),%rdi        # 4044dd <_IO_stdin_used+0x4dd>
  40281c:	e8 8f ea ff ff       	callq  4012b0 <puts@plt>
  402821:	be 00 00 00 00       	mov    $0x0,%esi
  402826:	bf 00 00 00 00       	mov    $0x0,%edi
  40282b:	e8 33 fc ff ff       	callq  402463 <notify_server>
  402830:	bf 01 00 00 00       	mov    $0x1,%edi
  402835:	e8 d6 eb ff ff       	callq  401410 <exit@plt>

000000000040283a <illegalhandler>:
  40283a:	f3 0f 1e fa          	endbr64 
  40283e:	50                   	push   %rax
  40283f:	58                   	pop    %rax
  402840:	48 83 ec 08          	sub    $0x8,%rsp
  402844:	83 3d dd 4c 00 00 00 	cmpl   $0x0,0x4cdd(%rip)        # 407528 <is_checker>
  40284b:	74 16                	je     402863 <illegalhandler+0x29>
  40284d:	48 8d 3d b2 1c 00 00 	lea    0x1cb2(%rip),%rdi        # 404506 <_IO_stdin_used+0x506>
  402854:	e8 57 ea ff ff       	callq  4012b0 <puts@plt>
  402859:	b8 00 00 00 00       	mov    $0x0,%eax
  40285e:	e8 6c fb ff ff       	callq  4023cf <check_fail>
  402863:	48 8d 3d 4e 1e 00 00 	lea    0x1e4e(%rip),%rdi        # 4046b8 <_IO_stdin_used+0x6b8>
  40286a:	e8 41 ea ff ff       	callq  4012b0 <puts@plt>
  40286f:	48 8d 3d 67 1c 00 00 	lea    0x1c67(%rip),%rdi        # 4044dd <_IO_stdin_used+0x4dd>
  402876:	e8 35 ea ff ff       	callq  4012b0 <puts@plt>
  40287b:	be 00 00 00 00       	mov    $0x0,%esi
  402880:	bf 00 00 00 00       	mov    $0x0,%edi
  402885:	e8 d9 fb ff ff       	callq  402463 <notify_server>
  40288a:	bf 01 00 00 00       	mov    $0x1,%edi
  40288f:	e8 7c eb ff ff       	callq  401410 <exit@plt>

0000000000402894 <sigalrmhandler>:
  402894:	f3 0f 1e fa          	endbr64 
  402898:	50                   	push   %rax
  402899:	58                   	pop    %rax
  40289a:	48 83 ec 08          	sub    $0x8,%rsp
  40289e:	83 3d 83 4c 00 00 00 	cmpl   $0x0,0x4c83(%rip)        # 407528 <is_checker>
  4028a5:	74 16                	je     4028bd <sigalrmhandler+0x29>
  4028a7:	48 8d 3d 6c 1c 00 00 	lea    0x1c6c(%rip),%rdi        # 40451a <_IO_stdin_used+0x51a>
  4028ae:	e8 fd e9 ff ff       	callq  4012b0 <puts@plt>
  4028b3:	b8 00 00 00 00       	mov    $0x0,%eax
  4028b8:	e8 12 fb ff ff       	callq  4023cf <check_fail>
  4028bd:	ba 02 00 00 00       	mov    $0x2,%edx
  4028c2:	48 8d 35 1f 1e 00 00 	lea    0x1e1f(%rip),%rsi        # 4046e8 <_IO_stdin_used+0x6e8>
  4028c9:	bf 01 00 00 00       	mov    $0x1,%edi
  4028ce:	b8 00 00 00 00       	mov    $0x0,%eax
  4028d3:	e8 e8 ea ff ff       	callq  4013c0 <__printf_chk@plt>
  4028d8:	be 00 00 00 00       	mov    $0x0,%esi
  4028dd:	bf 00 00 00 00       	mov    $0x0,%edi
  4028e2:	e8 7c fb ff ff       	callq  402463 <notify_server>
  4028e7:	bf 01 00 00 00       	mov    $0x1,%edi
  4028ec:	e8 1f eb ff ff       	callq  401410 <exit@plt>

00000000004028f1 <__stack_chk_fail>:
  4028f1:	f3 0f 1e fa          	endbr64 
  4028f5:	50                   	push   %rax
  4028f6:	58                   	pop    %rax
  4028f7:	48 83 ec 08          	sub    $0x8,%rsp
  4028fb:	83 3d 26 4c 00 00 00 	cmpl   $0x0,0x4c26(%rip)        # 407528 <is_checker>
  402902:	74 16                	je     40291a <__stack_chk_fail+0x29>
  402904:	48 8d 3d 17 1c 00 00 	lea    0x1c17(%rip),%rdi        # 404522 <_IO_stdin_used+0x522>
  40290b:	e8 a0 e9 ff ff       	callq  4012b0 <puts@plt>
  402910:	b8 00 00 00 00       	mov    $0x0,%eax
  402915:	e8 b5 fa ff ff       	callq  4023cf <check_fail>
  40291a:	48 8d 3d ff 1d 00 00 	lea    0x1dff(%rip),%rdi        # 404720 <_IO_stdin_used+0x720>
  402921:	e8 8a e9 ff ff       	callq  4012b0 <puts@plt>
  402926:	48 8d 3d b0 1b 00 00 	lea    0x1bb0(%rip),%rdi        # 4044dd <_IO_stdin_used+0x4dd>
  40292d:	e8 7e e9 ff ff       	callq  4012b0 <puts@plt>
  402932:	be 00 00 00 00       	mov    $0x0,%esi
  402937:	bf 00 00 00 00       	mov    $0x0,%edi
  40293c:	e8 22 fb ff ff       	callq  402463 <notify_server>
  402941:	bf 01 00 00 00       	mov    $0x1,%edi
  402946:	e8 c5 ea ff ff       	callq  401410 <exit@plt>

000000000040294b <launch>:
  40294b:	f3 0f 1e fa          	endbr64 
  40294f:	55                   	push   %rbp
  402950:	48 89 e5             	mov    %rsp,%rbp
  402953:	53                   	push   %rbx
  402954:	48 83 ec 18          	sub    $0x18,%rsp
  402958:	48 89 fa             	mov    %rdi,%rdx
  40295b:	89 f3                	mov    %esi,%ebx
  40295d:	64 48 8b 04 25 28 00 	mov    %fs:0x28,%rax
  402964:	00 00 
  402966:	48 89 45 e8          	mov    %rax,-0x18(%rbp)
  40296a:	31 c0                	xor    %eax,%eax
  40296c:	48 8d 47 17          	lea    0x17(%rdi),%rax
  402970:	48 89 c1             	mov    %rax,%rcx
  402973:	48 83 e1 f0          	and    $0xfffffffffffffff0,%rcx
  402977:	48 25 00 f0 ff ff    	and    $0xfffffffffffff000,%rax
  40297d:	48 89 e6             	mov    %rsp,%rsi
  402980:	48 29 c6             	sub    %rax,%rsi
  402983:	48 89 f0             	mov    %rsi,%rax
  402986:	48 39 c4             	cmp    %rax,%rsp
  402989:	74 12                	je     40299d <launch+0x52>
  40298b:	48 81 ec 00 10 00 00 	sub    $0x1000,%rsp
  402992:	48 83 8c 24 f8 0f 00 	orq    $0x0,0xff8(%rsp)
  402999:	00 00 
  40299b:	eb e9                	jmp    402986 <launch+0x3b>
  40299d:	48 89 c8             	mov    %rcx,%rax
  4029a0:	25 ff 0f 00 00       	and    $0xfff,%eax
  4029a5:	48 29 c4             	sub    %rax,%rsp
  4029a8:	48 85 c0             	test   %rax,%rax
  4029ab:	74 06                	je     4029b3 <launch+0x68>
  4029ad:	48 83 4c 04 f8 00    	orq    $0x0,-0x8(%rsp,%rax,1)
  4029b3:	48 8d 7c 24 0f       	lea    0xf(%rsp),%rdi
  4029b8:	48 83 e7 f0          	and    $0xfffffffffffffff0,%rdi
  4029bc:	be f4 00 00 00       	mov    $0xf4,%esi
  4029c1:	e8 1a e9 ff ff       	callq  4012e0 <memset@plt>
  4029c6:	48 8b 05 f3 4a 00 00 	mov    0x4af3(%rip),%rax        # 4074c0 <stdin@@GLIBC_2.2.5>
  4029cd:	48 39 05 3c 4b 00 00 	cmp    %rax,0x4b3c(%rip)        # 407510 <infile>
  4029d4:	74 42                	je     402a18 <launch+0xcd>
  4029d6:	c7 05 3c 4b 00 00 00 	movl   $0x0,0x4b3c(%rip)        # 40751c <vlevel>
  4029dd:	00 00 00 
  4029e0:	85 db                	test   %ebx,%ebx
  4029e2:	75 4c                	jne    402a30 <launch+0xe5>
  4029e4:	b8 00 00 00 00       	mov    $0x0,%eax
  4029e9:	e8 99 f6 ff ff       	callq  402087 <test>
  4029ee:	83 3d 33 4b 00 00 00 	cmpl   $0x0,0x4b33(%rip)        # 407528 <is_checker>
  4029f5:	75 45                	jne    402a3c <launch+0xf1>
  4029f7:	48 8d 3d 4b 1b 00 00 	lea    0x1b4b(%rip),%rdi        # 404549 <_IO_stdin_used+0x549>
  4029fe:	e8 ad e8 ff ff       	callq  4012b0 <puts@plt>
  402a03:	48 8b 45 e8          	mov    -0x18(%rbp),%rax
  402a07:	64 48 33 04 25 28 00 	xor    %fs:0x28,%rax
  402a0e:	00 00 
  402a10:	75 40                	jne    402a52 <launch+0x107>
  402a12:	48 8b 5d f8          	mov    -0x8(%rbp),%rbx
  402a16:	c9                   	leaveq 
  402a17:	c3                   	retq   
  402a18:	48 8d 35 12 1b 00 00 	lea    0x1b12(%rip),%rsi        # 404531 <_IO_stdin_used+0x531>
  402a1f:	bf 01 00 00 00       	mov    $0x1,%edi
  402a24:	b8 00 00 00 00       	mov    $0x0,%eax
  402a29:	e8 92 e9 ff ff       	callq  4013c0 <__printf_chk@plt>
  402a2e:	eb a6                	jmp    4029d6 <launch+0x8b>
  402a30:	b8 00 00 00 00       	mov    $0x0,%eax
  402a35:	e8 7c f6 ff ff       	callq  4020b6 <test2>
  402a3a:	eb b2                	jmp    4029ee <launch+0xa3>
  402a3c:	48 8d 3d fb 1a 00 00 	lea    0x1afb(%rip),%rdi        # 40453e <_IO_stdin_used+0x53e>
  402a43:	e8 68 e8 ff ff       	callq  4012b0 <puts@plt>
  402a48:	b8 00 00 00 00       	mov    $0x0,%eax
  402a4d:	e8 7d f9 ff ff       	callq  4023cf <check_fail>
  402a52:	e8 9a fe ff ff       	callq  4028f1 <__stack_chk_fail>

0000000000402a57 <stable_launch>:
  402a57:	f3 0f 1e fa          	endbr64 
  402a5b:	55                   	push   %rbp
  402a5c:	53                   	push   %rbx
  402a5d:	48 83 ec 08          	sub    $0x8,%rsp
  402a61:	89 f5                	mov    %esi,%ebp
  402a63:	48 89 3d 9e 4a 00 00 	mov    %rdi,0x4a9e(%rip)        # 407508 <global_offset>
  402a6a:	41 b9 00 00 00 00    	mov    $0x0,%r9d
  402a70:	41 b8 00 00 00 00    	mov    $0x0,%r8d
  402a76:	b9 32 01 00 00       	mov    $0x132,%ecx
  402a7b:	ba 07 00 00 00       	mov    $0x7,%edx
  402a80:	be 00 00 10 00       	mov    $0x100000,%esi
  402a85:	bf 00 60 58 55       	mov    $0x55586000,%edi
  402a8a:	e8 41 e8 ff ff       	callq  4012d0 <mmap@plt>
  402a8f:	48 89 c3             	mov    %rax,%rbx
  402a92:	48 3d 00 60 58 55    	cmp    $0x55586000,%rax
  402a98:	75 4a                	jne    402ae4 <stable_launch+0x8d>
  402a9a:	48 8d 90 f8 ff 0f 00 	lea    0xffff8(%rax),%rdx
  402aa1:	48 89 15 a8 56 00 00 	mov    %rdx,0x56a8(%rip)        # 408150 <stack_top>
  402aa8:	48 89 e0             	mov    %rsp,%rax
  402aab:	48 89 d4             	mov    %rdx,%rsp
  402aae:	48 89 c2             	mov    %rax,%rdx
  402ab1:	48 89 15 48 4a 00 00 	mov    %rdx,0x4a48(%rip)        # 407500 <global_save_stack>
  402ab8:	89 ee                	mov    %ebp,%esi
  402aba:	48 8b 3d 47 4a 00 00 	mov    0x4a47(%rip),%rdi        # 407508 <global_offset>
  402ac1:	e8 85 fe ff ff       	callq  40294b <launch>
  402ac6:	48 8b 05 33 4a 00 00 	mov    0x4a33(%rip),%rax        # 407500 <global_save_stack>
  402acd:	48 89 c4             	mov    %rax,%rsp
  402ad0:	be 00 00 10 00       	mov    $0x100000,%esi
  402ad5:	48 89 df             	mov    %rbx,%rdi
  402ad8:	e8 d3 e8 ff ff       	callq  4013b0 <munmap@plt>
  402add:	48 83 c4 08          	add    $0x8,%rsp
  402ae1:	5b                   	pop    %rbx
  402ae2:	5d                   	pop    %rbp
  402ae3:	c3                   	retq   
  402ae4:	be 00 00 10 00       	mov    $0x100000,%esi
  402ae9:	48 89 c7             	mov    %rax,%rdi
  402aec:	e8 bf e8 ff ff       	callq  4013b0 <munmap@plt>
  402af1:	b9 00 60 58 55       	mov    $0x55586000,%ecx
  402af6:	48 8d 15 4b 1c 00 00 	lea    0x1c4b(%rip),%rdx        # 404748 <_IO_stdin_used+0x748>
  402afd:	be 01 00 00 00       	mov    $0x1,%esi
  402b02:	48 8b 3d d7 49 00 00 	mov    0x49d7(%rip),%rdi        # 4074e0 <stderr@@GLIBC_2.2.5>
  402b09:	b8 00 00 00 00       	mov    $0x0,%eax
  402b0e:	e8 1d e9 ff ff       	callq  401430 <__fprintf_chk@plt>
  402b13:	bf 01 00 00 00       	mov    $0x1,%edi
  402b18:	e8 f3 e8 ff ff       	callq  401410 <exit@plt>

0000000000402b1d <rio_readinitb>:
  402b1d:	89 37                	mov    %esi,(%rdi)
  402b1f:	c7 47 04 00 00 00 00 	movl   $0x0,0x4(%rdi)
  402b26:	48 8d 47 10          	lea    0x10(%rdi),%rax
  402b2a:	48 89 47 08          	mov    %rax,0x8(%rdi)
  402b2e:	c3                   	retq   

0000000000402b2f <sigalrm_handler>:
  402b2f:	f3 0f 1e fa          	endbr64 
  402b33:	50                   	push   %rax
  402b34:	58                   	pop    %rax
  402b35:	48 83 ec 08          	sub    $0x8,%rsp
  402b39:	b9 00 00 00 00       	mov    $0x0,%ecx
  402b3e:	48 8d 15 3b 1c 00 00 	lea    0x1c3b(%rip),%rdx        # 404780 <trans_char+0x10>
  402b45:	be 01 00 00 00       	mov    $0x1,%esi
  402b4a:	48 8b 3d 8f 49 00 00 	mov    0x498f(%rip),%rdi        # 4074e0 <stderr@@GLIBC_2.2.5>
  402b51:	b8 00 00 00 00       	mov    $0x0,%eax
  402b56:	e8 d5 e8 ff ff       	callq  401430 <__fprintf_chk@plt>
  402b5b:	bf 01 00 00 00       	mov    $0x1,%edi
  402b60:	e8 ab e8 ff ff       	callq  401410 <exit@plt>

0000000000402b65 <rio_writen>:
  402b65:	41 55                	push   %r13
  402b67:	41 54                	push   %r12
  402b69:	55                   	push   %rbp
  402b6a:	53                   	push   %rbx
  402b6b:	48 83 ec 08          	sub    $0x8,%rsp
  402b6f:	41 89 fc             	mov    %edi,%r12d
  402b72:	48 89 f5             	mov    %rsi,%rbp
  402b75:	49 89 d5             	mov    %rdx,%r13
  402b78:	48 89 d3             	mov    %rdx,%rbx
  402b7b:	eb 06                	jmp    402b83 <rio_writen+0x1e>
  402b7d:	48 29 c3             	sub    %rax,%rbx
  402b80:	48 01 c5             	add    %rax,%rbp
  402b83:	48 85 db             	test   %rbx,%rbx
  402b86:	74 24                	je     402bac <rio_writen+0x47>
  402b88:	48 89 da             	mov    %rbx,%rdx
  402b8b:	48 89 ee             	mov    %rbp,%rsi
  402b8e:	44 89 e7             	mov    %r12d,%edi
  402b91:	e8 2a e7 ff ff       	callq  4012c0 <write@plt>
  402b96:	48 85 c0             	test   %rax,%rax
  402b99:	7f e2                	jg     402b7d <rio_writen+0x18>
  402b9b:	e8 c0 e6 ff ff       	callq  401260 <__errno_location@plt>
  402ba0:	83 38 04             	cmpl   $0x4,(%rax)
  402ba3:	75 15                	jne    402bba <rio_writen+0x55>
  402ba5:	b8 00 00 00 00       	mov    $0x0,%eax
  402baa:	eb d1                	jmp    402b7d <rio_writen+0x18>
  402bac:	4c 89 e8             	mov    %r13,%rax
  402baf:	48 83 c4 08          	add    $0x8,%rsp
  402bb3:	5b                   	pop    %rbx
  402bb4:	5d                   	pop    %rbp
  402bb5:	41 5c                	pop    %r12
  402bb7:	41 5d                	pop    %r13
  402bb9:	c3                   	retq   
  402bba:	48 c7 c0 ff ff ff ff 	mov    $0xffffffffffffffff,%rax
  402bc1:	eb ec                	jmp    402baf <rio_writen+0x4a>

0000000000402bc3 <rio_read>:
  402bc3:	41 55                	push   %r13
  402bc5:	41 54                	push   %r12
  402bc7:	55                   	push   %rbp
  402bc8:	53                   	push   %rbx
  402bc9:	48 83 ec 08          	sub    $0x8,%rsp
  402bcd:	48 89 fb             	mov    %rdi,%rbx
  402bd0:	49 89 f5             	mov    %rsi,%r13
  402bd3:	49 89 d4             	mov    %rdx,%r12
  402bd6:	eb 17                	jmp    402bef <rio_read+0x2c>
  402bd8:	e8 83 e6 ff ff       	callq  401260 <__errno_location@plt>
  402bdd:	83 38 04             	cmpl   $0x4,(%rax)
  402be0:	74 0d                	je     402bef <rio_read+0x2c>
  402be2:	48 c7 c0 ff ff ff ff 	mov    $0xffffffffffffffff,%rax
  402be9:	eb 54                	jmp    402c3f <rio_read+0x7c>
  402beb:	48 89 6b 08          	mov    %rbp,0x8(%rbx)
  402bef:	8b 6b 04             	mov    0x4(%rbx),%ebp
  402bf2:	85 ed                	test   %ebp,%ebp
  402bf4:	7f 23                	jg     402c19 <rio_read+0x56>
  402bf6:	48 8d 6b 10          	lea    0x10(%rbx),%rbp
  402bfa:	8b 3b                	mov    (%rbx),%edi
  402bfc:	ba 00 20 00 00       	mov    $0x2000,%edx
  402c01:	48 89 ee             	mov    %rbp,%rsi
  402c04:	e8 07 e7 ff ff       	callq  401310 <read@plt>
  402c09:	89 43 04             	mov    %eax,0x4(%rbx)
  402c0c:	85 c0                	test   %eax,%eax
  402c0e:	78 c8                	js     402bd8 <rio_read+0x15>
  402c10:	75 d9                	jne    402beb <rio_read+0x28>
  402c12:	b8 00 00 00 00       	mov    $0x0,%eax
  402c17:	eb 26                	jmp    402c3f <rio_read+0x7c>
  402c19:	89 e8                	mov    %ebp,%eax
  402c1b:	4c 39 e0             	cmp    %r12,%rax
  402c1e:	72 03                	jb     402c23 <rio_read+0x60>
  402c20:	44 89 e5             	mov    %r12d,%ebp
  402c23:	4c 63 e5             	movslq %ebp,%r12
  402c26:	48 8b 73 08          	mov    0x8(%rbx),%rsi
  402c2a:	4c 89 e2             	mov    %r12,%rdx
  402c2d:	4c 89 ef             	mov    %r13,%rdi
  402c30:	e8 3b e7 ff ff       	callq  401370 <memcpy@plt>
  402c35:	4c 01 63 08          	add    %r12,0x8(%rbx)
  402c39:	29 6b 04             	sub    %ebp,0x4(%rbx)
  402c3c:	4c 89 e0             	mov    %r12,%rax
  402c3f:	48 83 c4 08          	add    $0x8,%rsp
  402c43:	5b                   	pop    %rbx
  402c44:	5d                   	pop    %rbp
  402c45:	41 5c                	pop    %r12
  402c47:	41 5d                	pop    %r13
  402c49:	c3                   	retq   

0000000000402c4a <rio_readlineb>:
  402c4a:	41 55                	push   %r13
  402c4c:	41 54                	push   %r12
  402c4e:	55                   	push   %rbp
  402c4f:	53                   	push   %rbx
  402c50:	48 83 ec 18          	sub    $0x18,%rsp
  402c54:	49 89 fd             	mov    %rdi,%r13
  402c57:	48 89 f5             	mov    %rsi,%rbp
  402c5a:	49 89 d4             	mov    %rdx,%r12
  402c5d:	64 48 8b 04 25 28 00 	mov    %fs:0x28,%rax
  402c64:	00 00 
  402c66:	48 89 44 24 08       	mov    %rax,0x8(%rsp)
  402c6b:	31 c0                	xor    %eax,%eax
  402c6d:	bb 01 00 00 00       	mov    $0x1,%ebx
  402c72:	eb 18                	jmp    402c8c <rio_readlineb+0x42>
  402c74:	85 c0                	test   %eax,%eax
  402c76:	75 65                	jne    402cdd <rio_readlineb+0x93>
  402c78:	48 83 fb 01          	cmp    $0x1,%rbx
  402c7c:	75 3d                	jne    402cbb <rio_readlineb+0x71>
  402c7e:	b8 00 00 00 00       	mov    $0x0,%eax
  402c83:	eb 3d                	jmp    402cc2 <rio_readlineb+0x78>
  402c85:	48 83 c3 01          	add    $0x1,%rbx
  402c89:	48 89 d5             	mov    %rdx,%rbp
  402c8c:	4c 39 e3             	cmp    %r12,%rbx
  402c8f:	73 2a                	jae    402cbb <rio_readlineb+0x71>
  402c91:	48 8d 74 24 07       	lea    0x7(%rsp),%rsi
  402c96:	ba 01 00 00 00       	mov    $0x1,%edx
  402c9b:	4c 89 ef             	mov    %r13,%rdi
  402c9e:	e8 20 ff ff ff       	callq  402bc3 <rio_read>
  402ca3:	83 f8 01             	cmp    $0x1,%eax
  402ca6:	75 cc                	jne    402c74 <rio_readlineb+0x2a>
  402ca8:	48 8d 55 01          	lea    0x1(%rbp),%rdx
  402cac:	0f b6 44 24 07       	movzbl 0x7(%rsp),%eax
  402cb1:	88 45 00             	mov    %al,0x0(%rbp)
  402cb4:	3c 0a                	cmp    $0xa,%al
  402cb6:	75 cd                	jne    402c85 <rio_readlineb+0x3b>
  402cb8:	48 89 d5             	mov    %rdx,%rbp
  402cbb:	c6 45 00 00          	movb   $0x0,0x0(%rbp)
  402cbf:	48 89 d8             	mov    %rbx,%rax
  402cc2:	48 8b 4c 24 08       	mov    0x8(%rsp),%rcx
  402cc7:	64 48 33 0c 25 28 00 	xor    %fs:0x28,%rcx
  402cce:	00 00 
  402cd0:	75 14                	jne    402ce6 <rio_readlineb+0x9c>
  402cd2:	48 83 c4 18          	add    $0x18,%rsp
  402cd6:	5b                   	pop    %rbx
  402cd7:	5d                   	pop    %rbp
  402cd8:	41 5c                	pop    %r12
  402cda:	41 5d                	pop    %r13
  402cdc:	c3                   	retq   
  402cdd:	48 c7 c0 ff ff ff ff 	mov    $0xffffffffffffffff,%rax
  402ce4:	eb dc                	jmp    402cc2 <rio_readlineb+0x78>
  402ce6:	e8 06 fc ff ff       	callq  4028f1 <__stack_chk_fail>

0000000000402ceb <urlencode>:
  402ceb:	41 54                	push   %r12
  402ced:	55                   	push   %rbp
  402cee:	53                   	push   %rbx
  402cef:	48 83 ec 10          	sub    $0x10,%rsp
  402cf3:	48 89 fb             	mov    %rdi,%rbx
  402cf6:	48 89 f5             	mov    %rsi,%rbp
  402cf9:	64 48 8b 04 25 28 00 	mov    %fs:0x28,%rax
  402d00:	00 00 
  402d02:	48 89 44 24 08       	mov    %rax,0x8(%rsp)
  402d07:	31 c0                	xor    %eax,%eax
  402d09:	48 c7 c1 ff ff ff ff 	mov    $0xffffffffffffffff,%rcx
  402d10:	f2 ae                	repnz scas %es:(%rdi),%al
  402d12:	48 f7 d1             	not    %rcx
  402d15:	8d 41 ff             	lea    -0x1(%rcx),%eax
  402d18:	eb 0f                	jmp    402d29 <urlencode+0x3e>
  402d1a:	44 88 45 00          	mov    %r8b,0x0(%rbp)
  402d1e:	48 8d 6d 01          	lea    0x1(%rbp),%rbp
  402d22:	48 83 c3 01          	add    $0x1,%rbx
  402d26:	44 89 e0             	mov    %r12d,%eax
  402d29:	44 8d 60 ff          	lea    -0x1(%rax),%r12d
  402d2d:	85 c0                	test   %eax,%eax
  402d2f:	0f 84 a8 00 00 00    	je     402ddd <urlencode+0xf2>
  402d35:	44 0f b6 03          	movzbl (%rbx),%r8d
  402d39:	41 80 f8 2a          	cmp    $0x2a,%r8b
  402d3d:	0f 94 c2             	sete   %dl
  402d40:	41 80 f8 2d          	cmp    $0x2d,%r8b
  402d44:	0f 94 c0             	sete   %al
  402d47:	08 c2                	or     %al,%dl
  402d49:	75 cf                	jne    402d1a <urlencode+0x2f>
  402d4b:	41 80 f8 2e          	cmp    $0x2e,%r8b
  402d4f:	74 c9                	je     402d1a <urlencode+0x2f>
  402d51:	41 80 f8 5f          	cmp    $0x5f,%r8b
  402d55:	74 c3                	je     402d1a <urlencode+0x2f>
  402d57:	41 8d 40 d0          	lea    -0x30(%r8),%eax
  402d5b:	3c 09                	cmp    $0x9,%al
  402d5d:	76 bb                	jbe    402d1a <urlencode+0x2f>
  402d5f:	41 8d 40 bf          	lea    -0x41(%r8),%eax
  402d63:	3c 19                	cmp    $0x19,%al
  402d65:	76 b3                	jbe    402d1a <urlencode+0x2f>
  402d67:	41 8d 40 9f          	lea    -0x61(%r8),%eax
  402d6b:	3c 19                	cmp    $0x19,%al
  402d6d:	76 ab                	jbe    402d1a <urlencode+0x2f>
  402d6f:	41 80 f8 20          	cmp    $0x20,%r8b
  402d73:	74 56                	je     402dcb <urlencode+0xe0>
  402d75:	41 8d 40 e0          	lea    -0x20(%r8),%eax
  402d79:	3c 5f                	cmp    $0x5f,%al
  402d7b:	0f 96 c2             	setbe  %dl
  402d7e:	41 80 f8 09          	cmp    $0x9,%r8b
  402d82:	0f 94 c0             	sete   %al
  402d85:	08 c2                	or     %al,%dl
  402d87:	74 4f                	je     402dd8 <urlencode+0xed>
  402d89:	48 89 e7             	mov    %rsp,%rdi
  402d8c:	45 0f b6 c0          	movzbl %r8b,%r8d
  402d90:	48 8d 0d 9e 1a 00 00 	lea    0x1a9e(%rip),%rcx        # 404835 <trans_char+0xc5>
  402d97:	ba 08 00 00 00       	mov    $0x8,%edx
  402d9c:	be 01 00 00 00       	mov    $0x1,%esi
  402da1:	b8 00 00 00 00       	mov    $0x0,%eax
  402da6:	e8 a5 e6 ff ff       	callq  401450 <__sprintf_chk@plt>
  402dab:	0f b6 04 24          	movzbl (%rsp),%eax
  402daf:	88 45 00             	mov    %al,0x0(%rbp)
  402db2:	0f b6 44 24 01       	movzbl 0x1(%rsp),%eax
  402db7:	88 45 01             	mov    %al,0x1(%rbp)
  402dba:	0f b6 44 24 02       	movzbl 0x2(%rsp),%eax
  402dbf:	88 45 02             	mov    %al,0x2(%rbp)
  402dc2:	48 8d 6d 03          	lea    0x3(%rbp),%rbp
  402dc6:	e9 57 ff ff ff       	jmpq   402d22 <urlencode+0x37>
  402dcb:	c6 45 00 2b          	movb   $0x2b,0x0(%rbp)
  402dcf:	48 8d 6d 01          	lea    0x1(%rbp),%rbp
  402dd3:	e9 4a ff ff ff       	jmpq   402d22 <urlencode+0x37>
  402dd8:	b8 ff ff ff ff       	mov    $0xffffffff,%eax
  402ddd:	48 8b 74 24 08       	mov    0x8(%rsp),%rsi
  402de2:	64 48 33 34 25 28 00 	xor    %fs:0x28,%rsi
  402de9:	00 00 
  402deb:	75 09                	jne    402df6 <urlencode+0x10b>
  402ded:	48 83 c4 10          	add    $0x10,%rsp
  402df1:	5b                   	pop    %rbx
  402df2:	5d                   	pop    %rbp
  402df3:	41 5c                	pop    %r12
  402df5:	c3                   	retq   
  402df6:	e8 f6 fa ff ff       	callq  4028f1 <__stack_chk_fail>

0000000000402dfb <submitr>:
  402dfb:	f3 0f 1e fa          	endbr64 
  402dff:	41 57                	push   %r15
  402e01:	41 56                	push   %r14
  402e03:	41 55                	push   %r13
  402e05:	41 54                	push   %r12
  402e07:	55                   	push   %rbp
  402e08:	53                   	push   %rbx
  402e09:	4c 8d 9c 24 00 60 ff 	lea    -0xa000(%rsp),%r11
  402e10:	ff 
  402e11:	48 81 ec 00 10 00 00 	sub    $0x1000,%rsp
  402e18:	48 83 0c 24 00       	orq    $0x0,(%rsp)
  402e1d:	4c 39 dc             	cmp    %r11,%rsp
  402e20:	75 ef                	jne    402e11 <submitr+0x16>
  402e22:	48 83 ec 68          	sub    $0x68,%rsp
  402e26:	49 89 fc             	mov    %rdi,%r12
  402e29:	89 74 24 1c          	mov    %esi,0x1c(%rsp)
  402e2d:	48 89 54 24 08       	mov    %rdx,0x8(%rsp)
  402e32:	49 89 cd             	mov    %rcx,%r13
  402e35:	4c 89 44 24 10       	mov    %r8,0x10(%rsp)
  402e3a:	4d 89 ce             	mov    %r9,%r14
  402e3d:	48 8b ac 24 a0 a0 00 	mov    0xa0a0(%rsp),%rbp
  402e44:	00 
  402e45:	64 48 8b 04 25 28 00 	mov    %fs:0x28,%rax
  402e4c:	00 00 
  402e4e:	48 89 84 24 58 a0 00 	mov    %rax,0xa058(%rsp)
  402e55:	00 
  402e56:	31 c0                	xor    %eax,%eax
  402e58:	c7 44 24 2c 00 00 00 	movl   $0x0,0x2c(%rsp)
  402e5f:	00 
  402e60:	ba 00 00 00 00       	mov    $0x0,%edx
  402e65:	be 01 00 00 00       	mov    $0x1,%esi
  402e6a:	bf 02 00 00 00       	mov    $0x2,%edi
  402e6f:	e8 ec e5 ff ff       	callq  401460 <socket@plt>
  402e74:	85 c0                	test   %eax,%eax
  402e76:	0f 88 a5 02 00 00    	js     403121 <submitr+0x326>
  402e7c:	89 c3                	mov    %eax,%ebx
  402e7e:	4c 89 e7             	mov    %r12,%rdi
  402e81:	e8 ba e4 ff ff       	callq  401340 <gethostbyname@plt>
  402e86:	48 85 c0             	test   %rax,%rax
  402e89:	0f 84 de 02 00 00    	je     40316d <submitr+0x372>
  402e8f:	4c 8d 7c 24 30       	lea    0x30(%rsp),%r15
  402e94:	48 c7 44 24 30 00 00 	movq   $0x0,0x30(%rsp)
  402e9b:	00 00 
  402e9d:	48 c7 44 24 38 00 00 	movq   $0x0,0x38(%rsp)
  402ea4:	00 00 
  402ea6:	66 c7 44 24 30 02 00 	movw   $0x2,0x30(%rsp)
  402ead:	48 63 50 14          	movslq 0x14(%rax),%rdx
  402eb1:	48 8b 40 18          	mov    0x18(%rax),%rax
  402eb5:	48 8b 30             	mov    (%rax),%rsi
  402eb8:	48 8d 7c 24 34       	lea    0x34(%rsp),%rdi
  402ebd:	b9 0c 00 00 00       	mov    $0xc,%ecx
  402ec2:	e8 89 e4 ff ff       	callq  401350 <__memmove_chk@plt>
  402ec7:	0f b7 74 24 1c       	movzwl 0x1c(%rsp),%esi
  402ecc:	66 c1 c6 08          	rol    $0x8,%si
  402ed0:	66 89 74 24 32       	mov    %si,0x32(%rsp)
  402ed5:	ba 10 00 00 00       	mov    $0x10,%edx
  402eda:	4c 89 fe             	mov    %r15,%rsi
  402edd:	89 df                	mov    %ebx,%edi
  402edf:	e8 3c e5 ff ff       	callq  401420 <connect@plt>
  402ee4:	85 c0                	test   %eax,%eax
  402ee6:	0f 88 f7 02 00 00    	js     4031e3 <submitr+0x3e8>
  402eec:	48 c7 c6 ff ff ff ff 	mov    $0xffffffffffffffff,%rsi
  402ef3:	b8 00 00 00 00       	mov    $0x0,%eax
  402ef8:	48 89 f1             	mov    %rsi,%rcx
  402efb:	4c 89 f7             	mov    %r14,%rdi
  402efe:	f2 ae                	repnz scas %es:(%rdi),%al
  402f00:	48 89 ca             	mov    %rcx,%rdx
  402f03:	48 f7 d2             	not    %rdx
  402f06:	48 89 f1             	mov    %rsi,%rcx
  402f09:	48 8b 7c 24 08       	mov    0x8(%rsp),%rdi
  402f0e:	f2 ae                	repnz scas %es:(%rdi),%al
  402f10:	48 f7 d1             	not    %rcx
  402f13:	49 89 c8             	mov    %rcx,%r8
  402f16:	48 89 f1             	mov    %rsi,%rcx
  402f19:	4c 89 ef             	mov    %r13,%rdi
  402f1c:	f2 ae                	repnz scas %es:(%rdi),%al
  402f1e:	48 f7 d1             	not    %rcx
  402f21:	4d 8d 44 08 fe       	lea    -0x2(%r8,%rcx,1),%r8
  402f26:	48 89 f1             	mov    %rsi,%rcx
  402f29:	48 8b 7c 24 10       	mov    0x10(%rsp),%rdi
  402f2e:	f2 ae                	repnz scas %es:(%rdi),%al
  402f30:	48 89 c8             	mov    %rcx,%rax
  402f33:	48 f7 d0             	not    %rax
  402f36:	49 8d 4c 00 ff       	lea    -0x1(%r8,%rax,1),%rcx
  402f3b:	48 8d 44 52 fd       	lea    -0x3(%rdx,%rdx,2),%rax
  402f40:	48 8d 84 01 80 00 00 	lea    0x80(%rcx,%rax,1),%rax
  402f47:	00 
  402f48:	48 3d 00 20 00 00    	cmp    $0x2000,%rax
  402f4e:	0f 87 f7 02 00 00    	ja     40324b <submitr+0x450>
  402f54:	48 8d b4 24 50 40 00 	lea    0x4050(%rsp),%rsi
  402f5b:	00 
  402f5c:	b9 00 04 00 00       	mov    $0x400,%ecx
  402f61:	b8 00 00 00 00       	mov    $0x0,%eax
  402f66:	48 89 f7             	mov    %rsi,%rdi
  402f69:	f3 48 ab             	rep stos %rax,%es:(%rdi)
  402f6c:	4c 89 f7             	mov    %r14,%rdi
  402f6f:	e8 77 fd ff ff       	callq  402ceb <urlencode>
  402f74:	85 c0                	test   %eax,%eax
  402f76:	0f 88 42 03 00 00    	js     4032be <submitr+0x4c3>
  402f7c:	4c 8d bc 24 50 20 00 	lea    0x2050(%rsp),%r15
  402f83:	00 
  402f84:	48 83 ec 08          	sub    $0x8,%rsp
  402f88:	41 54                	push   %r12
  402f8a:	48 8d 84 24 60 40 00 	lea    0x4060(%rsp),%rax
  402f91:	00 
  402f92:	50                   	push   %rax
  402f93:	41 55                	push   %r13
  402f95:	4c 8b 4c 24 30       	mov    0x30(%rsp),%r9
  402f9a:	4c 8b 44 24 28       	mov    0x28(%rsp),%r8
  402f9f:	48 8d 0d 02 18 00 00 	lea    0x1802(%rip),%rcx        # 4047a8 <trans_char+0x38>
  402fa6:	ba 00 20 00 00       	mov    $0x2000,%edx
  402fab:	be 01 00 00 00       	mov    $0x1,%esi
  402fb0:	4c 89 ff             	mov    %r15,%rdi
  402fb3:	b8 00 00 00 00       	mov    $0x0,%eax
  402fb8:	e8 93 e4 ff ff       	callq  401450 <__sprintf_chk@plt>
  402fbd:	48 c7 c1 ff ff ff ff 	mov    $0xffffffffffffffff,%rcx
  402fc4:	b8 00 00 00 00       	mov    $0x0,%eax
  402fc9:	4c 89 ff             	mov    %r15,%rdi
  402fcc:	f2 ae                	repnz scas %es:(%rdi),%al
  402fce:	48 f7 d1             	not    %rcx
  402fd1:	48 8d 51 ff          	lea    -0x1(%rcx),%rdx
  402fd5:	48 83 c4 20          	add    $0x20,%rsp
  402fd9:	4c 89 fe             	mov    %r15,%rsi
  402fdc:	89 df                	mov    %ebx,%edi
  402fde:	e8 82 fb ff ff       	callq  402b65 <rio_writen>
  402fe3:	48 85 c0             	test   %rax,%rax
  402fe6:	0f 88 5d 03 00 00    	js     403349 <submitr+0x54e>
  402fec:	4c 8d 64 24 40       	lea    0x40(%rsp),%r12
  402ff1:	89 de                	mov    %ebx,%esi
  402ff3:	4c 89 e7             	mov    %r12,%rdi
  402ff6:	e8 22 fb ff ff       	callq  402b1d <rio_readinitb>
  402ffb:	48 8d b4 24 50 20 00 	lea    0x2050(%rsp),%rsi
  403002:	00 
  403003:	ba 00 20 00 00       	mov    $0x2000,%edx
  403008:	4c 89 e7             	mov    %r12,%rdi
  40300b:	e8 3a fc ff ff       	callq  402c4a <rio_readlineb>
  403010:	48 85 c0             	test   %rax,%rax
  403013:	0f 8e 9c 03 00 00    	jle    4033b5 <submitr+0x5ba>
  403019:	48 8d 4c 24 2c       	lea    0x2c(%rsp),%rcx
  40301e:	48 8d 94 24 50 60 00 	lea    0x6050(%rsp),%rdx
  403025:	00 
  403026:	48 8d bc 24 50 20 00 	lea    0x2050(%rsp),%rdi
  40302d:	00 
  40302e:	4c 8d 84 24 50 80 00 	lea    0x8050(%rsp),%r8
  403035:	00 
  403036:	48 8d 35 ff 17 00 00 	lea    0x17ff(%rip),%rsi        # 40483c <trans_char+0xcc>
  40303d:	b8 00 00 00 00       	mov    $0x0,%eax
  403042:	e8 59 e3 ff ff       	callq  4013a0 <__isoc99_sscanf@plt>
  403047:	48 8d b4 24 50 20 00 	lea    0x2050(%rsp),%rsi
  40304e:	00 
  40304f:	b9 03 00 00 00       	mov    $0x3,%ecx
  403054:	48 8d 3d f8 17 00 00 	lea    0x17f8(%rip),%rdi        # 404853 <trans_char+0xe3>
  40305b:	f3 a6                	repz cmpsb %es:(%rdi),%ds:(%rsi)
  40305d:	0f 97 c0             	seta   %al
  403060:	1c 00                	sbb    $0x0,%al
  403062:	84 c0                	test   %al,%al
  403064:	0f 84 cb 03 00 00    	je     403435 <submitr+0x63a>
  40306a:	48 8d b4 24 50 20 00 	lea    0x2050(%rsp),%rsi
  403071:	00 
  403072:	48 8d 7c 24 40       	lea    0x40(%rsp),%rdi
  403077:	ba 00 20 00 00       	mov    $0x2000,%edx
  40307c:	e8 c9 fb ff ff       	callq  402c4a <rio_readlineb>
  403081:	48 85 c0             	test   %rax,%rax
  403084:	7f c1                	jg     403047 <submitr+0x24c>
  403086:	48 b8 45 72 72 6f 72 	movabs $0x43203a726f727245,%rax
  40308d:	3a 20 43 
  403090:	48 ba 6c 69 65 6e 74 	movabs $0x6e7520746e65696c,%rdx
  403097:	20 75 6e 
  40309a:	48 89 45 00          	mov    %rax,0x0(%rbp)
  40309e:	48 89 55 08          	mov    %rdx,0x8(%rbp)
  4030a2:	48 b8 61 62 6c 65 20 	movabs $0x206f7420656c6261,%rax
  4030a9:	74 6f 20 
  4030ac:	48 ba 72 65 61 64 20 	movabs $0x6165682064616572,%rdx
  4030b3:	68 65 61 
  4030b6:	48 89 45 10          	mov    %rax,0x10(%rbp)
  4030ba:	48 89 55 18          	mov    %rdx,0x18(%rbp)
  4030be:	48 b8 64 65 72 73 20 	movabs $0x6f72662073726564,%rax
  4030c5:	66 72 6f 
  4030c8:	48 ba 6d 20 41 75 74 	movabs $0x616c6f747541206d,%rdx
  4030cf:	6f 6c 61 
  4030d2:	48 89 45 20          	mov    %rax,0x20(%rbp)
  4030d6:	48 89 55 28          	mov    %rdx,0x28(%rbp)
  4030da:	48 b8 62 20 73 65 72 	movabs $0x7265767265732062,%rax
  4030e1:	76 65 72 
  4030e4:	48 89 45 30          	mov    %rax,0x30(%rbp)
  4030e8:	c6 45 38 00          	movb   $0x0,0x38(%rbp)
  4030ec:	89 df                	mov    %ebx,%edi
  4030ee:	e8 0d e2 ff ff       	callq  401300 <close@plt>
  4030f3:	b8 ff ff ff ff       	mov    $0xffffffff,%eax
  4030f8:	48 8b 9c 24 58 a0 00 	mov    0xa058(%rsp),%rbx
  4030ff:	00 
  403100:	64 48 33 1c 25 28 00 	xor    %fs:0x28,%rbx
  403107:	00 00 
  403109:	0f 85 96 04 00 00    	jne    4035a5 <submitr+0x7aa>
  40310f:	48 81 c4 68 a0 00 00 	add    $0xa068,%rsp
  403116:	5b                   	pop    %rbx
  403117:	5d                   	pop    %rbp
  403118:	41 5c                	pop    %r12
  40311a:	41 5d                	pop    %r13
  40311c:	41 5e                	pop    %r14
  40311e:	41 5f                	pop    %r15
  403120:	c3                   	retq   
  403121:	48 b8 45 72 72 6f 72 	movabs $0x43203a726f727245,%rax
  403128:	3a 20 43 
  40312b:	48 ba 6c 69 65 6e 74 	movabs $0x6e7520746e65696c,%rdx
  403132:	20 75 6e 
  403135:	48 89 45 00          	mov    %rax,0x0(%rbp)
  403139:	48 89 55 08          	mov    %rdx,0x8(%rbp)
  40313d:	48 b8 61 62 6c 65 20 	movabs $0x206f7420656c6261,%rax
  403144:	74 6f 20 
  403147:	48 ba 63 72 65 61 74 	movabs $0x7320657461657263,%rdx
  40314e:	65 20 73 
  403151:	48 89 45 10          	mov    %rax,0x10(%rbp)
  403155:	48 89 55 18          	mov    %rdx,0x18(%rbp)
  403159:	c7 45 20 6f 63 6b 65 	movl   $0x656b636f,0x20(%rbp)
  403160:	66 c7 45 24 74 00    	movw   $0x74,0x24(%rbp)
  403166:	b8 ff ff ff ff       	mov    $0xffffffff,%eax
  40316b:	eb 8b                	jmp    4030f8 <submitr+0x2fd>
  40316d:	48 b8 45 72 72 6f 72 	movabs $0x44203a726f727245,%rax
  403174:	3a 20 44 
  403177:	48 ba 4e 53 20 69 73 	movabs $0x6e7520736920534e,%rdx
  40317e:	20 75 6e 
  403181:	48 89 45 00          	mov    %rax,0x0(%rbp)
  403185:	48 89 55 08          	mov    %rdx,0x8(%rbp)
  403189:	48 b8 61 62 6c 65 20 	movabs $0x206f7420656c6261,%rax
  403190:	74 6f 20 
  403193:	48 ba 72 65 73 6f 6c 	movabs $0x2065766c6f736572,%rdx
  40319a:	76 65 20 
  40319d:	48 89 45 10          	mov    %rax,0x10(%rbp)
  4031a1:	48 89 55 18          	mov    %rdx,0x18(%rbp)
  4031a5:	48 b8 41 75 74 6f 6c 	movabs $0x2062616c6f747541,%rax
  4031ac:	61 62 20 
  4031af:	48 ba 73 65 72 76 65 	movabs $0x6120726576726573,%rdx
  4031b6:	72 20 61 
  4031b9:	48 89 45 20          	mov    %rax,0x20(%rbp)
  4031bd:	48 89 55 28          	mov    %rdx,0x28(%rbp)
  4031c1:	c7 45 30 64 64 72 65 	movl   $0x65726464,0x30(%rbp)
  4031c8:	66 c7 45 34 73 73    	movw   $0x7373,0x34(%rbp)
  4031ce:	c6 45 36 00          	movb   $0x0,0x36(%rbp)
  4031d2:	89 df                	mov    %ebx,%edi
  4031d4:	e8 27 e1 ff ff       	callq  401300 <close@plt>
  4031d9:	b8 ff ff ff ff       	mov    $0xffffffff,%eax
  4031de:	e9 15 ff ff ff       	jmpq   4030f8 <submitr+0x2fd>
  4031e3:	48 b8 45 72 72 6f 72 	movabs $0x55203a726f727245,%rax
  4031ea:	3a 20 55 
  4031ed:	48 ba 6e 61 62 6c 65 	movabs $0x6f7420656c62616e,%rdx
  4031f4:	20 74 6f 
  4031f7:	48 89 45 00          	mov    %rax,0x0(%rbp)
  4031fb:	48 89 55 08          	mov    %rdx,0x8(%rbp)
  4031ff:	48 b8 20 63 6f 6e 6e 	movabs $0x7463656e6e6f6320,%rax
  403206:	65 63 74 
  403209:	48 ba 20 74 6f 20 74 	movabs $0x20656874206f7420,%rdx
  403210:	68 65 20 
  403213:	48 89 45 10          	mov    %rax,0x10(%rbp)
  403217:	48 89 55 18          	mov    %rdx,0x18(%rbp)
  40321b:	48 b8 41 75 74 6f 6c 	movabs $0x2062616c6f747541,%rax
  403222:	61 62 20 
  403225:	48 89 45 20          	mov    %rax,0x20(%rbp)
  403229:	c7 45 28 73 65 72 76 	movl   $0x76726573,0x28(%rbp)
  403230:	66 c7 45 2c 65 72    	movw   $0x7265,0x2c(%rbp)
  403236:	c6 45 2e 00          	movb   $0x0,0x2e(%rbp)
  40323a:	89 df                	mov    %ebx,%edi
  40323c:	e8 bf e0 ff ff       	callq  401300 <close@plt>
  403241:	b8 ff ff ff ff       	mov    $0xffffffff,%eax
  403246:	e9 ad fe ff ff       	jmpq   4030f8 <submitr+0x2fd>
  40324b:	48 b8 45 72 72 6f 72 	movabs $0x52203a726f727245,%rax
  403252:	3a 20 52 
  403255:	48 ba 65 73 75 6c 74 	movabs $0x747320746c757365,%rdx
  40325c:	20 73 74 
  40325f:	48 89 45 00          	mov    %rax,0x0(%rbp)
  403263:	48 89 55 08          	mov    %rdx,0x8(%rbp)
  403267:	48 b8 72 69 6e 67 20 	movabs $0x6f6f7420676e6972,%rax
  40326e:	74 6f 6f 
  403271:	48 ba 20 6c 61 72 67 	movabs $0x202e656772616c20,%rdx
  403278:	65 2e 20 
  40327b:	48 89 45 10          	mov    %rax,0x10(%rbp)
  40327f:	48 89 55 18          	mov    %rdx,0x18(%rbp)
  403283:	48 b8 49 6e 63 72 65 	movabs $0x6573616572636e49,%rax
  40328a:	61 73 65 
  40328d:	48 ba 20 53 55 42 4d 	movabs $0x5254494d42555320,%rdx
  403294:	49 54 52 
  403297:	48 89 45 20          	mov    %rax,0x20(%rbp)
  40329b:	48 89 55 28          	mov    %rdx,0x28(%rbp)
  40329f:	48 b8 5f 4d 41 58 42 	movabs $0x46554258414d5f,%rax
  4032a6:	55 46 00 
  4032a9:	48 89 45 30          	mov    %rax,0x30(%rbp)
  4032ad:	89 df                	mov    %ebx,%edi
  4032af:	e8 4c e0 ff ff       	callq  401300 <close@plt>
  4032b4:	b8 ff ff ff ff       	mov    $0xffffffff,%eax
  4032b9:	e9 3a fe ff ff       	jmpq   4030f8 <submitr+0x2fd>
  4032be:	48 b8 45 72 72 6f 72 	movabs $0x52203a726f727245,%rax
  4032c5:	3a 20 52 
  4032c8:	48 ba 65 73 75 6c 74 	movabs $0x747320746c757365,%rdx
  4032cf:	20 73 74 
  4032d2:	48 89 45 00          	mov    %rax,0x0(%rbp)
  4032d6:	48 89 55 08          	mov    %rdx,0x8(%rbp)
  4032da:	48 b8 72 69 6e 67 20 	movabs $0x6e6f6320676e6972,%rax
  4032e1:	63 6f 6e 
  4032e4:	48 ba 74 61 69 6e 73 	movabs $0x6e6120736e696174,%rdx
  4032eb:	20 61 6e 
  4032ee:	48 89 45 10          	mov    %rax,0x10(%rbp)
  4032f2:	48 89 55 18          	mov    %rdx,0x18(%rbp)
  4032f6:	48 b8 20 69 6c 6c 65 	movabs $0x6c6167656c6c6920,%rax
  4032fd:	67 61 6c 
  403300:	48 ba 20 6f 72 20 75 	movabs $0x72706e7520726f20,%rdx
  403307:	6e 70 72 
  40330a:	48 89 45 20          	mov    %rax,0x20(%rbp)
  40330e:	48 89 55 28          	mov    %rdx,0x28(%rbp)
  403312:	48 b8 69 6e 74 61 62 	movabs $0x20656c6261746e69,%rax
  403319:	6c 65 20 
  40331c:	48 ba 63 68 61 72 61 	movabs $0x6574636172616863,%rdx
  403323:	63 74 65 
  403326:	48 89 45 30          	mov    %rax,0x30(%rbp)
  40332a:	48 89 55 38          	mov    %rdx,0x38(%rbp)
  40332e:	66 c7 45 40 72 2e    	movw   $0x2e72,0x40(%rbp)
  403334:	c6 45 42 00          	movb   $0x0,0x42(%rbp)
  403338:	89 df                	mov    %ebx,%edi
  40333a:	e8 c1 df ff ff       	callq  401300 <close@plt>
  40333f:	b8 ff ff ff ff       	mov    $0xffffffff,%eax
  403344:	e9 af fd ff ff       	jmpq   4030f8 <submitr+0x2fd>
  403349:	48 b8 45 72 72 6f 72 	movabs $0x43203a726f727245,%rax
  403350:	3a 20 43 
  403353:	48 ba 6c 69 65 6e 74 	movabs $0x6e7520746e65696c,%rdx
  40335a:	20 75 6e 
  40335d:	48 89 45 00          	mov    %rax,0x0(%rbp)
  403361:	48 89 55 08          	mov    %rdx,0x8(%rbp)
  403365:	48 b8 61 62 6c 65 20 	movabs $0x206f7420656c6261,%rax
  40336c:	74 6f 20 
  40336f:	48 ba 77 72 69 74 65 	movabs $0x6f74206574697277,%rdx
  403376:	20 74 6f 
  403379:	48 89 45 10          	mov    %rax,0x10(%rbp)
  40337d:	48 89 55 18          	mov    %rdx,0x18(%rbp)
  403381:	48 b8 20 74 68 65 20 	movabs $0x7475412065687420,%rax
  403388:	41 75 74 
  40338b:	48 ba 6f 6c 61 62 20 	movabs $0x7265732062616c6f,%rdx
  403392:	73 65 72 
  403395:	48 89 45 20          	mov    %rax,0x20(%rbp)
  403399:	48 89 55 28          	mov    %rdx,0x28(%rbp)
  40339d:	c7 45 30 76 65 72 00 	movl   $0x726576,0x30(%rbp)
  4033a4:	89 df                	mov    %ebx,%edi
  4033a6:	e8 55 df ff ff       	callq  401300 <close@plt>
  4033ab:	b8 ff ff ff ff       	mov    $0xffffffff,%eax
  4033b0:	e9 43 fd ff ff       	jmpq   4030f8 <submitr+0x2fd>
  4033b5:	48 b8 45 72 72 6f 72 	movabs $0x43203a726f727245,%rax
  4033bc:	3a 20 43 
  4033bf:	48 ba 6c 69 65 6e 74 	movabs $0x6e7520746e65696c,%rdx
  4033c6:	20 75 6e 
  4033c9:	48 89 45 00          	mov    %rax,0x0(%rbp)
  4033cd:	48 89 55 08          	mov    %rdx,0x8(%rbp)
  4033d1:	48 b8 61 62 6c 65 20 	movabs $0x206f7420656c6261,%rax
  4033d8:	74 6f 20 
  4033db:	48 ba 72 65 61 64 20 	movabs $0x7269662064616572,%rdx
  4033e2:	66 69 72 
  4033e5:	48 89 45 10          	mov    %rax,0x10(%rbp)
  4033e9:	48 89 55 18          	mov    %rdx,0x18(%rbp)
  4033ed:	48 b8 73 74 20 68 65 	movabs $0x6564616568207473,%rax
  4033f4:	61 64 65 
  4033f7:	48 ba 72 20 66 72 6f 	movabs $0x41206d6f72662072,%rdx
  4033fe:	6d 20 41 
  403401:	48 89 45 20          	mov    %rax,0x20(%rbp)
  403405:	48 89 55 28          	mov    %rdx,0x28(%rbp)
  403409:	48 b8 75 74 6f 6c 61 	movabs $0x732062616c6f7475,%rax
  403410:	62 20 73 
  403413:	48 89 45 30          	mov    %rax,0x30(%rbp)
  403417:	c7 45 38 65 72 76 65 	movl   $0x65767265,0x38(%rbp)
  40341e:	66 c7 45 3c 72 00    	movw   $0x72,0x3c(%rbp)
  403424:	89 df                	mov    %ebx,%edi
  403426:	e8 d5 de ff ff       	callq  401300 <close@plt>
  40342b:	b8 ff ff ff ff       	mov    $0xffffffff,%eax
  403430:	e9 c3 fc ff ff       	jmpq   4030f8 <submitr+0x2fd>
  403435:	48 8d b4 24 50 20 00 	lea    0x2050(%rsp),%rsi
  40343c:	00 
  40343d:	48 8d 7c 24 40       	lea    0x40(%rsp),%rdi
  403442:	ba 00 20 00 00       	mov    $0x2000,%edx
  403447:	e8 fe f7 ff ff       	callq  402c4a <rio_readlineb>
  40344c:	48 85 c0             	test   %rax,%rax
  40344f:	0f 8e 96 00 00 00    	jle    4034eb <submitr+0x6f0>
  403455:	44 8b 44 24 2c       	mov    0x2c(%rsp),%r8d
  40345a:	41 81 f8 c8 00 00 00 	cmp    $0xc8,%r8d
  403461:	0f 85 05 01 00 00    	jne    40356c <submitr+0x771>
  403467:	48 8d b4 24 50 20 00 	lea    0x2050(%rsp),%rsi
  40346e:	00 
  40346f:	48 89 ef             	mov    %rbp,%rdi
  403472:	e8 29 de ff ff       	callq  4012a0 <strcpy@plt>
  403477:	89 df                	mov    %ebx,%edi
  403479:	e8 82 de ff ff       	callq  401300 <close@plt>
  40347e:	b9 04 00 00 00       	mov    $0x4,%ecx
  403483:	48 8d 3d c3 13 00 00 	lea    0x13c3(%rip),%rdi        # 40484d <trans_char+0xdd>
  40348a:	48 89 ee             	mov    %rbp,%rsi
  40348d:	f3 a6                	repz cmpsb %es:(%rdi),%ds:(%rsi)
  40348f:	0f 97 c0             	seta   %al
  403492:	1c 00                	sbb    $0x0,%al
  403494:	0f be c0             	movsbl %al,%eax
  403497:	85 c0                	test   %eax,%eax
  403499:	0f 84 59 fc ff ff    	je     4030f8 <submitr+0x2fd>
  40349f:	b9 05 00 00 00       	mov    $0x5,%ecx
  4034a4:	48 8d 3d a6 13 00 00 	lea    0x13a6(%rip),%rdi        # 404851 <trans_char+0xe1>
  4034ab:	48 89 ee             	mov    %rbp,%rsi
  4034ae:	f3 a6                	repz cmpsb %es:(%rdi),%ds:(%rsi)
  4034b0:	0f 97 c0             	seta   %al
  4034b3:	1c 00                	sbb    $0x0,%al
  4034b5:	0f be c0             	movsbl %al,%eax
  4034b8:	85 c0                	test   %eax,%eax
  4034ba:	0f 84 38 fc ff ff    	je     4030f8 <submitr+0x2fd>
  4034c0:	b9 03 00 00 00       	mov    $0x3,%ecx
  4034c5:	48 8d 3d 8a 13 00 00 	lea    0x138a(%rip),%rdi        # 404856 <trans_char+0xe6>
  4034cc:	48 89 ee             	mov    %rbp,%rsi
  4034cf:	f3 a6                	repz cmpsb %es:(%rdi),%ds:(%rsi)
  4034d1:	0f 97 c0             	seta   %al
  4034d4:	1c 00                	sbb    $0x0,%al
  4034d6:	0f be c0             	movsbl %al,%eax
  4034d9:	85 c0                	test   %eax,%eax
  4034db:	0f 84 17 fc ff ff    	je     4030f8 <submitr+0x2fd>
  4034e1:	b8 ff ff ff ff       	mov    $0xffffffff,%eax
  4034e6:	e9 0d fc ff ff       	jmpq   4030f8 <submitr+0x2fd>
  4034eb:	48 b8 45 72 72 6f 72 	movabs $0x43203a726f727245,%rax
  4034f2:	3a 20 43 
  4034f5:	48 ba 6c 69 65 6e 74 	movabs $0x6e7520746e65696c,%rdx
  4034fc:	20 75 6e 
  4034ff:	48 89 45 00          	mov    %rax,0x0(%rbp)
  403503:	48 89 55 08          	mov    %rdx,0x8(%rbp)
  403507:	48 b8 61 62 6c 65 20 	movabs $0x206f7420656c6261,%rax
  40350e:	74 6f 20 
  403511:	48 ba 72 65 61 64 20 	movabs $0x6174732064616572,%rdx
  403518:	73 74 61 
  40351b:	48 89 45 10          	mov    %rax,0x10(%rbp)
  40351f:	48 89 55 18          	mov    %rdx,0x18(%rbp)
  403523:	48 b8 74 75 73 20 6d 	movabs $0x7373656d20737574,%rax
  40352a:	65 73 73 
  40352d:	48 ba 61 67 65 20 66 	movabs $0x6d6f726620656761,%rdx
  403534:	72 6f 6d 
  403537:	48 89 45 20          	mov    %rax,0x20(%rbp)
  40353b:	48 89 55 28          	mov    %rdx,0x28(%rbp)
  40353f:	48 b8 20 41 75 74 6f 	movabs $0x62616c6f74754120,%rax
  403546:	6c 61 62 
  403549:	48 ba 20 73 65 72 76 	movabs $0x72657672657320,%rdx
  403550:	65 72 00 
  403553:	48 89 45 30          	mov    %rax,0x30(%rbp)
  403557:	48 89 55 38          	mov    %rdx,0x38(%rbp)
  40355b:	89 df                	mov    %ebx,%edi
  40355d:	e8 9e dd ff ff       	callq  401300 <close@plt>
  403562:	b8 ff ff ff ff       	mov    $0xffffffff,%eax
  403567:	e9 8c fb ff ff       	jmpq   4030f8 <submitr+0x2fd>
  40356c:	4c 8d 8c 24 50 80 00 	lea    0x8050(%rsp),%r9
  403573:	00 
  403574:	48 8d 0d 8d 12 00 00 	lea    0x128d(%rip),%rcx        # 404808 <trans_char+0x98>
  40357b:	48 c7 c2 ff ff ff ff 	mov    $0xffffffffffffffff,%rdx
  403582:	be 01 00 00 00       	mov    $0x1,%esi
  403587:	48 89 ef             	mov    %rbp,%rdi
  40358a:	b8 00 00 00 00       	mov    $0x0,%eax
  40358f:	e8 bc de ff ff       	callq  401450 <__sprintf_chk@plt>
  403594:	89 df                	mov    %ebx,%edi
  403596:	e8 65 dd ff ff       	callq  401300 <close@plt>
  40359b:	b8 ff ff ff ff       	mov    $0xffffffff,%eax
  4035a0:	e9 53 fb ff ff       	jmpq   4030f8 <submitr+0x2fd>
  4035a5:	e8 47 f3 ff ff       	callq  4028f1 <__stack_chk_fail>

00000000004035aa <init_timeout>:
  4035aa:	f3 0f 1e fa          	endbr64 
  4035ae:	85 ff                	test   %edi,%edi
  4035b0:	74 26                	je     4035d8 <init_timeout+0x2e>
  4035b2:	53                   	push   %rbx
  4035b3:	89 fb                	mov    %edi,%ebx
  4035b5:	78 1a                	js     4035d1 <init_timeout+0x27>
  4035b7:	48 8d 35 71 f5 ff ff 	lea    -0xa8f(%rip),%rsi        # 402b2f <sigalrm_handler>
  4035be:	bf 0e 00 00 00       	mov    $0xe,%edi
  4035c3:	e8 68 dd ff ff       	callq  401330 <signal@plt>
  4035c8:	89 df                	mov    %ebx,%edi
  4035ca:	e8 21 dd ff ff       	callq  4012f0 <alarm@plt>
  4035cf:	5b                   	pop    %rbx
  4035d0:	c3                   	retq   
  4035d1:	bb 00 00 00 00       	mov    $0x0,%ebx
  4035d6:	eb df                	jmp    4035b7 <init_timeout+0xd>
  4035d8:	c3                   	retq   

00000000004035d9 <init_driver>:
  4035d9:	f3 0f 1e fa          	endbr64 
  4035dd:	41 54                	push   %r12
  4035df:	55                   	push   %rbp
  4035e0:	53                   	push   %rbx
  4035e1:	48 83 ec 20          	sub    $0x20,%rsp
  4035e5:	48 89 fd             	mov    %rdi,%rbp
  4035e8:	64 48 8b 04 25 28 00 	mov    %fs:0x28,%rax
  4035ef:	00 00 
  4035f1:	48 89 44 24 18       	mov    %rax,0x18(%rsp)
  4035f6:	31 c0                	xor    %eax,%eax
  4035f8:	be 01 00 00 00       	mov    $0x1,%esi
  4035fd:	bf 0d 00 00 00       	mov    $0xd,%edi
  403602:	e8 29 dd ff ff       	callq  401330 <signal@plt>
  403607:	be 01 00 00 00       	mov    $0x1,%esi
  40360c:	bf 1d 00 00 00       	mov    $0x1d,%edi
  403611:	e8 1a dd ff ff       	callq  401330 <signal@plt>
  403616:	be 01 00 00 00       	mov    $0x1,%esi
  40361b:	bf 1d 00 00 00       	mov    $0x1d,%edi
  403620:	e8 0b dd ff ff       	callq  401330 <signal@plt>
  403625:	ba 00 00 00 00       	mov    $0x0,%edx
  40362a:	be 01 00 00 00       	mov    $0x1,%esi
  40362f:	bf 02 00 00 00       	mov    $0x2,%edi
  403634:	e8 27 de ff ff       	callq  401460 <socket@plt>
  403639:	85 c0                	test   %eax,%eax
  40363b:	0f 88 9c 00 00 00    	js     4036dd <init_driver+0x104>
  403641:	89 c3                	mov    %eax,%ebx
  403643:	48 8d 3d 0f 12 00 00 	lea    0x120f(%rip),%rdi        # 404859 <trans_char+0xe9>
  40364a:	e8 f1 dc ff ff       	callq  401340 <gethostbyname@plt>
  40364f:	48 85 c0             	test   %rax,%rax
  403652:	0f 84 d1 00 00 00    	je     403729 <init_driver+0x150>
  403658:	49 89 e4             	mov    %rsp,%r12
  40365b:	48 c7 04 24 00 00 00 	movq   $0x0,(%rsp)
  403662:	00 
  403663:	48 c7 44 24 08 00 00 	movq   $0x0,0x8(%rsp)
  40366a:	00 00 
  40366c:	66 c7 04 24 02 00    	movw   $0x2,(%rsp)
  403672:	48 63 50 14          	movslq 0x14(%rax),%rdx
  403676:	48 8b 40 18          	mov    0x18(%rax),%rax
  40367a:	48 8b 30             	mov    (%rax),%rsi
  40367d:	48 8d 7c 24 04       	lea    0x4(%rsp),%rdi
  403682:	b9 0c 00 00 00       	mov    $0xc,%ecx
  403687:	e8 c4 dc ff ff       	callq  401350 <__memmove_chk@plt>
  40368c:	66 c7 44 24 02 30 39 	movw   $0x3930,0x2(%rsp)
  403693:	ba 10 00 00 00       	mov    $0x10,%edx
  403698:	4c 89 e6             	mov    %r12,%rsi
  40369b:	89 df                	mov    %ebx,%edi
  40369d:	e8 7e dd ff ff       	callq  401420 <connect@plt>
  4036a2:	85 c0                	test   %eax,%eax
  4036a4:	0f 88 e7 00 00 00    	js     403791 <init_driver+0x1b8>
  4036aa:	89 df                	mov    %ebx,%edi
  4036ac:	e8 4f dc ff ff       	callq  401300 <close@plt>
  4036b1:	66 c7 45 00 4f 4b    	movw   $0x4b4f,0x0(%rbp)
  4036b7:	c6 45 02 00          	movb   $0x0,0x2(%rbp)
  4036bb:	b8 00 00 00 00       	mov    $0x0,%eax
  4036c0:	48 8b 4c 24 18       	mov    0x18(%rsp),%rcx
  4036c5:	64 48 33 0c 25 28 00 	xor    %fs:0x28,%rcx
  4036cc:	00 00 
  4036ce:	0f 85 10 01 00 00    	jne    4037e4 <init_driver+0x20b>
  4036d4:	48 83 c4 20          	add    $0x20,%rsp
  4036d8:	5b                   	pop    %rbx
  4036d9:	5d                   	pop    %rbp
  4036da:	41 5c                	pop    %r12
  4036dc:	c3                   	retq   
  4036dd:	48 b8 45 72 72 6f 72 	movabs $0x43203a726f727245,%rax
  4036e4:	3a 20 43 
  4036e7:	48 ba 6c 69 65 6e 74 	movabs $0x6e7520746e65696c,%rdx
  4036ee:	20 75 6e 
  4036f1:	48 89 45 00          	mov    %rax,0x0(%rbp)
  4036f5:	48 89 55 08          	mov    %rdx,0x8(%rbp)
  4036f9:	48 b8 61 62 6c 65 20 	movabs $0x206f7420656c6261,%rax
  403700:	74 6f 20 
  403703:	48 ba 63 72 65 61 74 	movabs $0x7320657461657263,%rdx
  40370a:	65 20 73 
  40370d:	48 89 45 10          	mov    %rax,0x10(%rbp)
  403711:	48 89 55 18          	mov    %rdx,0x18(%rbp)
  403715:	c7 45 20 6f 63 6b 65 	movl   $0x656b636f,0x20(%rbp)
  40371c:	66 c7 45 24 74 00    	movw   $0x74,0x24(%rbp)
  403722:	b8 ff ff ff ff       	mov    $0xffffffff,%eax
  403727:	eb 97                	jmp    4036c0 <init_driver+0xe7>
  403729:	48 b8 45 72 72 6f 72 	movabs $0x44203a726f727245,%rax
  403730:	3a 20 44 
  403733:	48 ba 4e 53 20 69 73 	movabs $0x6e7520736920534e,%rdx
  40373a:	20 75 6e 
  40373d:	48 89 45 00          	mov    %rax,0x0(%rbp)
  403741:	48 89 55 08          	mov    %rdx,0x8(%rbp)
  403745:	48 b8 61 62 6c 65 20 	movabs $0x206f7420656c6261,%rax
  40374c:	74 6f 20 
  40374f:	48 ba 72 65 73 6f 6c 	movabs $0x2065766c6f736572,%rdx
  403756:	76 65 20 
  403759:	48 89 45 10          	mov    %rax,0x10(%rbp)
  40375d:	48 89 55 18          	mov    %rdx,0x18(%rbp)
  403761:	48 b8 73 65 72 76 65 	movabs $0x6120726576726573,%rax
  403768:	72 20 61 
  40376b:	48 89 45 20          	mov    %rax,0x20(%rbp)
  40376f:	c7 45 28 64 64 72 65 	movl   $0x65726464,0x28(%rbp)
  403776:	66 c7 45 2c 73 73    	movw   $0x7373,0x2c(%rbp)
  40377c:	c6 45 2e 00          	movb   $0x0,0x2e(%rbp)
  403780:	89 df                	mov    %ebx,%edi
  403782:	e8 79 db ff ff       	callq  401300 <close@plt>
  403787:	b8 ff ff ff ff       	mov    $0xffffffff,%eax
  40378c:	e9 2f ff ff ff       	jmpq   4036c0 <init_driver+0xe7>
  403791:	48 b8 45 72 72 6f 72 	movabs $0x55203a726f727245,%rax
  403798:	3a 20 55 
  40379b:	48 ba 6e 61 62 6c 65 	movabs $0x6f7420656c62616e,%rdx
  4037a2:	20 74 6f 
  4037a5:	48 89 45 00          	mov    %rax,0x0(%rbp)
  4037a9:	48 89 55 08          	mov    %rdx,0x8(%rbp)
  4037ad:	48 b8 20 63 6f 6e 6e 	movabs $0x7463656e6e6f6320,%rax
  4037b4:	65 63 74 
  4037b7:	48 ba 20 74 6f 20 73 	movabs $0x76726573206f7420,%rdx
  4037be:	65 72 76 
  4037c1:	48 89 45 10          	mov    %rax,0x10(%rbp)
  4037c5:	48 89 55 18          	mov    %rdx,0x18(%rbp)
  4037c9:	66 c7 45 20 65 72    	movw   $0x7265,0x20(%rbp)
  4037cf:	c6 45 22 00          	movb   $0x0,0x22(%rbp)
  4037d3:	89 df                	mov    %ebx,%edi
  4037d5:	e8 26 db ff ff       	callq  401300 <close@plt>
  4037da:	b8 ff ff ff ff       	mov    $0xffffffff,%eax
  4037df:	e9 dc fe ff ff       	jmpq   4036c0 <init_driver+0xe7>
  4037e4:	e8 08 f1 ff ff       	callq  4028f1 <__stack_chk_fail>

00000000004037e9 <driver_post>:
  4037e9:	f3 0f 1e fa          	endbr64 
  4037ed:	53                   	push   %rbx
  4037ee:	4c 89 cb             	mov    %r9,%rbx
  4037f1:	45 85 c0             	test   %r8d,%r8d
  4037f4:	75 18                	jne    40380e <driver_post+0x25>
  4037f6:	48 85 ff             	test   %rdi,%rdi
  4037f9:	74 05                	je     403800 <driver_post+0x17>
  4037fb:	80 3f 00             	cmpb   $0x0,(%rdi)
  4037fe:	75 37                	jne    403837 <driver_post+0x4e>
  403800:	66 c7 03 4f 4b       	movw   $0x4b4f,(%rbx)
  403805:	c6 43 02 00          	movb   $0x0,0x2(%rbx)
  403809:	44 89 c0             	mov    %r8d,%eax
  40380c:	5b                   	pop    %rbx
  40380d:	c3                   	retq   
  40380e:	48 89 ca             	mov    %rcx,%rdx
  403811:	48 8d 35 51 10 00 00 	lea    0x1051(%rip),%rsi        # 404869 <trans_char+0xf9>
  403818:	bf 01 00 00 00       	mov    $0x1,%edi
  40381d:	b8 00 00 00 00       	mov    $0x0,%eax
  403822:	e8 99 db ff ff       	callq  4013c0 <__printf_chk@plt>
  403827:	66 c7 03 4f 4b       	movw   $0x4b4f,(%rbx)
  40382c:	c6 43 02 00          	movb   $0x0,0x2(%rbx)
  403830:	b8 00 00 00 00       	mov    $0x0,%eax
  403835:	eb d5                	jmp    40380c <driver_post+0x23>
  403837:	48 83 ec 08          	sub    $0x8,%rsp
  40383b:	41 51                	push   %r9
  40383d:	49 89 c9             	mov    %rcx,%r9
  403840:	49 89 d0             	mov    %rdx,%r8
  403843:	48 89 f9             	mov    %rdi,%rcx
  403846:	48 89 f2             	mov    %rsi,%rdx
  403849:	be 39 30 00 00       	mov    $0x3039,%esi
  40384e:	48 8d 3d 04 10 00 00 	lea    0x1004(%rip),%rdi        # 404859 <trans_char+0xe9>
  403855:	e8 a1 f5 ff ff       	callq  402dfb <submitr>
  40385a:	48 83 c4 10          	add    $0x10,%rsp
  40385e:	eb ac                	jmp    40380c <driver_post+0x23>

0000000000403860 <check>:
  403860:	f3 0f 1e fa          	endbr64 
  403864:	89 f8                	mov    %edi,%eax
  403866:	c1 e8 1c             	shr    $0x1c,%eax
  403869:	74 1d                	je     403888 <check+0x28>
  40386b:	b9 00 00 00 00       	mov    $0x0,%ecx
  403870:	83 f9 1f             	cmp    $0x1f,%ecx
  403873:	7f 0d                	jg     403882 <check+0x22>
  403875:	89 f8                	mov    %edi,%eax
  403877:	d3 e8                	shr    %cl,%eax
  403879:	3c 0a                	cmp    $0xa,%al
  40387b:	74 11                	je     40388e <check+0x2e>
  40387d:	83 c1 08             	add    $0x8,%ecx
  403880:	eb ee                	jmp    403870 <check+0x10>
  403882:	b8 01 00 00 00       	mov    $0x1,%eax
  403887:	c3                   	retq   
  403888:	b8 00 00 00 00       	mov    $0x0,%eax
  40388d:	c3                   	retq   
  40388e:	b8 00 00 00 00       	mov    $0x0,%eax
  403893:	c3                   	retq   

0000000000403894 <gencookie>:
  403894:	f3 0f 1e fa          	endbr64 
  403898:	53                   	push   %rbx
  403899:	83 c7 01             	add    $0x1,%edi
  40389c:	e8 cf d9 ff ff       	callq  401270 <srandom@plt>
  4038a1:	e8 ea da ff ff       	callq  401390 <random@plt>
  4038a6:	48 89 c7             	mov    %rax,%rdi
  4038a9:	89 c3                	mov    %eax,%ebx
  4038ab:	e8 b0 ff ff ff       	callq  403860 <check>
  4038b0:	85 c0                	test   %eax,%eax
  4038b2:	74 ed                	je     4038a1 <gencookie+0xd>
  4038b4:	89 d8                	mov    %ebx,%eax
  4038b6:	5b                   	pop    %rbx
  4038b7:	c3                   	retq   
  4038b8:	0f 1f 84 00 00 00 00 	nopl   0x0(%rax,%rax,1)
  4038bf:	00 

00000000004038c0 <__libc_csu_init>:
  4038c0:	f3 0f 1e fa          	endbr64 
  4038c4:	41 57                	push   %r15
  4038c6:	4c 8d 3d 43 35 00 00 	lea    0x3543(%rip),%r15        # 406e10 <__frame_dummy_init_array_entry>
  4038cd:	41 56                	push   %r14
  4038cf:	49 89 d6             	mov    %rdx,%r14
  4038d2:	41 55                	push   %r13
  4038d4:	49 89 f5             	mov    %rsi,%r13
  4038d7:	41 54                	push   %r12
  4038d9:	41 89 fc             	mov    %edi,%r12d
  4038dc:	55                   	push   %rbp
  4038dd:	48 8d 2d 34 35 00 00 	lea    0x3534(%rip),%rbp        # 406e18 <__init_array_end>
  4038e4:	53                   	push   %rbx
  4038e5:	4c 29 fd             	sub    %r15,%rbp
  4038e8:	48 83 ec 08          	sub    $0x8,%rsp
  4038ec:	e8 0f d7 ff ff       	callq  401000 <_init>
  4038f1:	48 c1 fd 03          	sar    $0x3,%rbp
  4038f5:	74 1f                	je     403916 <__libc_csu_init+0x56>
  4038f7:	31 db                	xor    %ebx,%ebx
  4038f9:	0f 1f 80 00 00 00 00 	nopl   0x0(%rax)
  403900:	4c 89 f2             	mov    %r14,%rdx
  403903:	4c 89 ee             	mov    %r13,%rsi
  403906:	44 89 e7             	mov    %r12d,%edi
  403909:	41 ff 14 df          	callq  *(%r15,%rbx,8)
  40390d:	48 83 c3 01          	add    $0x1,%rbx
  403911:	48 39 dd             	cmp    %rbx,%rbp
  403914:	75 ea                	jne    403900 <__libc_csu_init+0x40>
  403916:	48 83 c4 08          	add    $0x8,%rsp
  40391a:	5b                   	pop    %rbx
  40391b:	5d                   	pop    %rbp
  40391c:	41 5c                	pop    %r12
  40391e:	41 5d                	pop    %r13
  403920:	41 5e                	pop    %r14
  403922:	41 5f                	pop    %r15
  403924:	c3                   	retq   
  403925:	66 66 2e 0f 1f 84 00 	data16 nopw %cs:0x0(%rax,%rax,1)
  40392c:	00 00 00 00 

0000000000403930 <__libc_csu_fini>:
  403930:	f3 0f 1e fa          	endbr64 
  403934:	c3                   	retq   

Disassembly of section .fini:

0000000000403938 <_fini>:
  403938:	f3 0f 1e fa          	endbr64 
  40393c:	48 83 ec 08          	sub    $0x8,%rsp
  403940:	48 83 c4 08          	add    $0x8,%rsp
  403944:	c3                   	retq   
